
SensorHub.elf:     file format elf32-littlearm

Sections:
Idx Name          Size      VMA       LMA       File off  Algn
  0 .isr_vector   0000010c  08000000  08000000  00001000  2**0
                  CONTENTS, ALLOC, LOAD, READONLY, DATA
  1 .text         00004694  08000110  08000110  00001110  2**4
                  CONTENTS, ALLOC, LOAD, READONLY, CODE
  2 .rodata       00000118  080047a4  080047a4  000057a4  2**2
                  CONTENTS, ALLOC, LOAD, READONLY, DATA
  3 .ARM.extab    00000000  080048bc  080048bc  0000606c  2**0
                  CONTENTS, READONLY
  4 .ARM          00000000  080048bc  080048bc  0000606c  2**0
                  CONTENTS, READONLY
  5 .preinit_array 00000000  080048bc  080048bc  0000606c  2**0
                  CONTENTS, ALLOC, LOAD, DATA
  6 .init_array   00000004  080048bc  080048bc  000058bc  2**2
                  CONTENTS, ALLOC, LOAD, READONLY, DATA
  7 .fini_array   00000004  080048c0  080048c0  000058c0  2**2
                  CONTENTS, ALLOC, LOAD, READONLY, DATA
  8 .data         0000006c  20000000  080048c4  00006000  2**2
                  CONTENTS, ALLOC, LOAD, DATA
  9 .bss          000012ec  2000006c  08004930  0000606c  2**2
                  ALLOC
 10 ._user_heap_stack 00000600  20001358  08004930  00006358  2**0
                  ALLOC
 11 .ARM.attributes 00000029  00000000  00000000  0000606c  2**0
                  CONTENTS, READONLY
 12 .comment      00000043  00000000  00000000  00006095  2**0
                  CONTENTS, READONLY
 13 .debug_frame  000008a4  00000000  00000000  000060d8  2**2
                  CONTENTS, READONLY, DEBUGGING, OCTETS

Disassembly of section .text:

08000110 <__do_global_dtors_aux>:
 8000110:	b510      	push	{r4, lr}
 8000112:	4c05      	ldr	r4, [pc, #20]	@ (8000128 <__do_global_dtors_aux+0x18>)
 8000114:	7823      	ldrb	r3, [r4, #0]
 8000116:	b933      	cbnz	r3, 8000126 <__do_global_dtors_aux+0x16>
 8000118:	4b04      	ldr	r3, [pc, #16]	@ (800012c <__do_global_dtors_aux+0x1c>)
 800011a:	b113      	cbz	r3, 8000122 <__do_global_dtors_aux+0x12>
 800011c:	4804      	ldr	r0, [pc, #16]	@ (8000130 <__do_global_dtors_aux+0x20>)
 800011e:	f3af 8000 	nop.w
 8000122:	2301      	movs	r3, #1
 8000124:	7023      	strb	r3, [r4, #0]
 8000126:	bd10      	pop	{r4, pc}
 8000128:	2000006c 	.word	0x2000006c
 800012c:	00000000 	.word	0x00000000
 8000130:	0800478c 	.word	0x0800478c

08000134 <frame_dummy>:
 8000134:	b508      	push	{r3, lr}
 8000136:	4b03      	ldr	r3, [pc, #12]	@ (8000144 <frame_dummy+0x10>)
 8000138:	b11b      	cbz	r3, 8000142 <frame_dummy+0xe>
 800013a:	4903      	ldr	r1, [pc, #12]	@ (8000148 <frame_dummy+0x14>)
 800013c:	4803      	ldr	r0, [pc, #12]	@ (800014c <frame_dummy+0x18>)
 800013e:	f3af 8000 	nop.w
 8000142:	bd08      	pop	{r3, pc}
 8000144:	00000000 	.word	0x00000000
 8000148:	20000070 	.word	0x20000070
 800014c:	0800478c 	.word	0x0800478c

08000150 <vApplicationGetIdleTaskMemory>:
 8000150:	4b03      	ldr	r3, [pc, #12]	@ (8000160 <vApplicationGetIdleTaskMemory+0x10>)
 8000152:	6003      	str	r3, [r0, #0]
 8000154:	4b03      	ldr	r3, [pc, #12]	@ (8000164 <vApplicationGetIdleTaskMemory+0x14>)
 8000156:	600b      	str	r3, [r1, #0]
 8000158:	2380      	movs	r3, #128	@ 0x80
 800015a:	6013      	str	r3, [r2, #0]
 800015c:	4770      	bx	lr
 800015e:	bf00      	nop
 8000160:	20000288 	.word	0x20000288
 8000164:	20000088 	.word	0x20000088

08000168 <Task_CO>:
 8000168:	e92d 43f7 	stmdb	sp!, {r0, r1, r2, r4, r5, r6, r7, r8, r9, lr}
 800016c:	4913      	ldr	r1, [pc, #76]	@ (80001bc <Task_CO+0x54>)
 800016e:	4814      	ldr	r0, [pc, #80]	@ (80001c0 <Task_CO+0x58>)
 8000170:	f003 fb9e 	bl	80038b0 <iprintf>
 8000174:	f002 fefe 	bl	8002f74 <xTaskGetTickCount>
 8000178:	4e12      	ldr	r6, [pc, #72]	@ (80001c4 <Task_CO+0x5c>)
 800017a:	4f13      	ldr	r7, [pc, #76]	@ (80001c8 <Task_CO+0x60>)
 800017c:	f8df 804c 	ldr.w	r8, [pc, #76]	@ 80001cc <Task_CO+0x64>
 8000180:	9001      	str	r0, [sp, #4]
 8000182:	4630      	mov	r0, r6
 8000184:	f003 fc04 	bl	8003990 <puts>
 8000188:	2209      	movs	r2, #9
 800018a:	4639      	mov	r1, r7
 800018c:	4640      	mov	r0, r8
 800018e:	f002 fc49 	bl	8002a24 <HAL_UART_Receive_DMA>
 8000192:	2400      	movs	r4, #0
 8000194:	4d0c      	ldr	r5, [pc, #48]	@ (80001c8 <Task_CO+0x60>)
 8000196:	f8df 9038 	ldr.w	r9, [pc, #56]	@ 80001d0 <Task_CO+0x68>
 800019a:	4648      	mov	r0, r9
 800019c:	f815 1b01 	ldrb.w	r1, [r5], #1
 80001a0:	3401      	adds	r4, #1
 80001a2:	f003 fb85 	bl	80038b0 <iprintf>
 80001a6:	2c09      	cmp	r4, #9
 80001a8:	d1f7      	bne.n	800019a <Task_CO+0x32>
 80001aa:	200a      	movs	r0, #10
 80001ac:	f003 fb92 	bl	80038d4 <putchar>
 80001b0:	f44f 717a 	mov.w	r1, #1000	@ 0x3e8
 80001b4:	a801      	add	r0, sp, #4
 80001b6:	f002 fff3 	bl	80031a0 <vTaskDelayUntil>
 80001ba:	e7e2      	b.n	8000182 <Task_CO+0x1a>
 80001bc:	080047c0 	.word	0x080047c0
 80001c0:	080047c8 	.word	0x080047c8
 80001c4:	080047d8 	.word	0x080047d8
 80001c8:	20000328 	.word	0x20000328
 80001cc:	2000037c 	.word	0x2000037c
 80001d0:	080047f7 	.word	0x080047f7

080001d4 <StartDefaultTask>:
 80001d4:	b513      	push	{r0, r1, r4, lr}
 80001d6:	4909      	ldr	r1, [pc, #36]	@ (80001fc <StartDefaultTask+0x28>)
 80001d8:	4809      	ldr	r0, [pc, #36]	@ (8000200 <StartDefaultTask+0x2c>)
 80001da:	f003 fb69 	bl	80038b0 <iprintf>
 80001de:	f002 fec9 	bl	8002f74 <xTaskGetTickCount>
 80001e2:	4c08      	ldr	r4, [pc, #32]	@ (8000204 <StartDefaultTask+0x30>)
 80001e4:	9001      	str	r0, [sp, #4]
 80001e6:	4620      	mov	r0, r4
 80001e8:	2120      	movs	r1, #32
 80001ea:	f000 fe06 	bl	8000dfa <HAL_GPIO_TogglePin>
 80001ee:	f44f 71fa 	mov.w	r1, #500	@ 0x1f4
 80001f2:	a801      	add	r0, sp, #4
 80001f4:	f002 ffd4 	bl	80031a0 <vTaskDelayUntil>
 80001f8:	e7f5      	b.n	80001e6 <StartDefaultTask+0x12>
 80001fa:	bf00      	nop
 80001fc:	080047fd 	.word	0x080047fd
 8000200:	080047c8 	.word	0x080047c8
 8000204:	40010800 	.word	0x40010800

08000208 <__io_putchar>:
 8000208:	b507      	push	{r0, r1, r2, lr}
 800020a:	280a      	cmp	r0, #10
 800020c:	9001      	str	r0, [sp, #4]
 800020e:	d106      	bne.n	800021e <__io_putchar+0x16>
 8000210:	f04f 33ff 	mov.w	r3, #4294967295
 8000214:	2201      	movs	r2, #1
 8000216:	4907      	ldr	r1, [pc, #28]	@ (8000234 <__io_putchar+0x2c>)
 8000218:	4807      	ldr	r0, [pc, #28]	@ (8000238 <__io_putchar+0x30>)
 800021a:	f002 f92e 	bl	800247a <HAL_UART_Transmit>
 800021e:	f04f 33ff 	mov.w	r3, #4294967295
 8000222:	2201      	movs	r2, #1
 8000224:	a901      	add	r1, sp, #4
 8000226:	4804      	ldr	r0, [pc, #16]	@ (8000238 <__io_putchar+0x30>)
 8000228:	f002 f927 	bl	800247a <HAL_UART_Transmit>
 800022c:	9801      	ldr	r0, [sp, #4]
 800022e:	b003      	add	sp, #12
 8000230:	f85d fb04 	ldr.w	pc, [sp], #4
 8000234:	0800480e 	.word	0x0800480e
 8000238:	2000037c 	.word	0x2000037c

0800023c <SystemClock_Config>:
 800023c:	b510      	push	{r4, lr}
 800023e:	b090      	sub	sp, #64	@ 0x40
 8000240:	2220      	movs	r2, #32
 8000242:	2100      	movs	r1, #0
 8000244:	a807      	add	r0, sp, #28
 8000246:	f003 fc83 	bl	8003b50 <memset>
 800024a:	2214      	movs	r2, #20
 800024c:	2100      	movs	r1, #0
 800024e:	a801      	add	r0, sp, #4
 8000250:	f003 fc7e 	bl	8003b50 <memset>
 8000254:	2310      	movs	r3, #16
 8000256:	2201      	movs	r2, #1
 8000258:	2402      	movs	r4, #2
 800025a:	e9cd 230a 	strd	r2, r3, [sp, #40]	@ 0x28
 800025e:	f44f 1360 	mov.w	r3, #3670016	@ 0x380000
 8000262:	a806      	add	r0, sp, #24
 8000264:	9406      	str	r4, [sp, #24]
 8000266:	940d      	str	r4, [sp, #52]	@ 0x34
 8000268:	930f      	str	r3, [sp, #60]	@ 0x3c
 800026a:	f001 fce7 	bl	8001c3c <HAL_RCC_OscConfig>
 800026e:	b108      	cbz	r0, 8000274 <SystemClock_Config+0x38>
 8000270:	b672      	cpsid	i
 8000272:	e7fe      	b.n	8000272 <SystemClock_Config+0x36>
 8000274:	230f      	movs	r3, #15
 8000276:	e9cd 3401 	strd	r3, r4, [sp, #4]
 800027a:	f44f 6380 	mov.w	r3, #1024	@ 0x400
 800027e:	9003      	str	r0, [sp, #12]
 8000280:	e9cd 3004 	strd	r3, r0, [sp, #16]
 8000284:	4621      	mov	r1, r4
 8000286:	a801      	add	r0, sp, #4
 8000288:	f001 fe9a 	bl	8001fc0 <HAL_RCC_ClockConfig>
 800028c:	b108      	cbz	r0, 8000292 <SystemClock_Config+0x56>
 800028e:	b672      	cpsid	i
 8000290:	e7fe      	b.n	8000290 <SystemClock_Config+0x54>
 8000292:	b010      	add	sp, #64	@ 0x40
 8000294:	bd10      	pop	{r4, pc}
	...

08000298 <main>:
 8000298:	b580      	push	{r7, lr}
 800029a:	4c6a      	ldr	r4, [pc, #424]	@ (8000444 <main+0x1ac>)
 800029c:	b090      	sub	sp, #64	@ 0x40
 800029e:	f000 fae1 	bl	8000864 <HAL_Init>
 80002a2:	f7ff ffcb 	bl	800023c <SystemClock_Config>
 80002a6:	2210      	movs	r2, #16
 80002a8:	2100      	movs	r1, #0
 80002aa:	a809      	add	r0, sp, #36	@ 0x24
 80002ac:	f003 fc50 	bl	8003b50 <memset>
 80002b0:	69a3      	ldr	r3, [r4, #24]
 80002b2:	2200      	movs	r2, #0
 80002b4:	f043 0310 	orr.w	r3, r3, #16
 80002b8:	61a3      	str	r3, [r4, #24]
 80002ba:	69a3      	ldr	r3, [r4, #24]
 80002bc:	2120      	movs	r1, #32
 80002be:	f003 0310 	and.w	r3, r3, #16
 80002c2:	9305      	str	r3, [sp, #20]
 80002c4:	9b05      	ldr	r3, [sp, #20]
 80002c6:	69a3      	ldr	r3, [r4, #24]
 80002c8:	485f      	ldr	r0, [pc, #380]	@ (8000448 <main+0x1b0>)
 80002ca:	f043 0320 	orr.w	r3, r3, #32
 80002ce:	61a3      	str	r3, [r4, #24]
 80002d0:	69a3      	ldr	r3, [r4, #24]
 80002d2:	2500      	movs	r5, #0
 80002d4:	f003 0320 	and.w	r3, r3, #32
 80002d8:	9306      	str	r3, [sp, #24]
 80002da:	9b06      	ldr	r3, [sp, #24]
 80002dc:	69a3      	ldr	r3, [r4, #24]
 80002de:	2701      	movs	r7, #1
 80002e0:	f043 0304 	orr.w	r3, r3, #4
 80002e4:	61a3      	str	r3, [r4, #24]
 80002e6:	69a3      	ldr	r3, [r4, #24]
 80002e8:	f04f 0820 	mov.w	r8, #32
 80002ec:	f003 0304 	and.w	r3, r3, #4
 80002f0:	9307      	str	r3, [sp, #28]
 80002f2:	9b07      	ldr	r3, [sp, #28]
 80002f4:	69a3      	ldr	r3, [r4, #24]
 80002f6:	2602      	movs	r6, #2
 80002f8:	f043 0308 	orr.w	r3, r3, #8
 80002fc:	61a3      	str	r3, [r4, #24]
 80002fe:	69a3      	ldr	r3, [r4, #24]
 8000300:	f003 0308 	and.w	r3, r3, #8
 8000304:	9308      	str	r3, [sp, #32]
 8000306:	9b08      	ldr	r3, [sp, #32]
 8000308:	f000 fd72 	bl	8000df0 <HAL_GPIO_WritePin>
 800030c:	2200      	movs	r2, #0
 800030e:	2120      	movs	r1, #32
 8000310:	484e      	ldr	r0, [pc, #312]	@ (800044c <main+0x1b4>)
 8000312:	f000 fd6d 	bl	8000df0 <HAL_GPIO_WritePin>
 8000316:	f44f 5000 	mov.w	r0, #8192	@ 0x2000
 800031a:	4b4d      	ldr	r3, [pc, #308]	@ (8000450 <main+0x1b8>)
 800031c:	a909      	add	r1, sp, #36	@ 0x24
 800031e:	e9cd 0309 	strd	r0, r3, [sp, #36]	@ 0x24
 8000322:	484a      	ldr	r0, [pc, #296]	@ (800044c <main+0x1b4>)
 8000324:	950b      	str	r5, [sp, #44]	@ 0x2c
 8000326:	f000 fc8f 	bl	8000c48 <HAL_GPIO_Init>
 800032a:	4847      	ldr	r0, [pc, #284]	@ (8000448 <main+0x1b0>)
 800032c:	a909      	add	r1, sp, #36	@ 0x24
 800032e:	e9cd 8709 	strd	r8, r7, [sp, #36]	@ 0x24
 8000332:	950b      	str	r5, [sp, #44]	@ 0x2c
 8000334:	960c      	str	r6, [sp, #48]	@ 0x30
 8000336:	f000 fc87 	bl	8000c48 <HAL_GPIO_Init>
 800033a:	4844      	ldr	r0, [pc, #272]	@ (800044c <main+0x1b4>)
 800033c:	a909      	add	r1, sp, #36	@ 0x24
 800033e:	e9cd 8709 	strd	r8, r7, [sp, #36]	@ 0x24
 8000342:	e9cd 560b 	strd	r5, r6, [sp, #44]	@ 0x2c
 8000346:	f000 fc7f 	bl	8000c48 <HAL_GPIO_Init>
 800034a:	2340      	movs	r3, #64	@ 0x40
 800034c:	483f      	ldr	r0, [pc, #252]	@ (800044c <main+0x1b4>)
 800034e:	a909      	add	r1, sp, #36	@ 0x24
 8000350:	e9cd 3509 	strd	r3, r5, [sp, #36]	@ 0x24
 8000354:	950b      	str	r5, [sp, #44]	@ 0x2c
 8000356:	f000 fc77 	bl	8000c48 <HAL_GPIO_Init>
 800035a:	462a      	mov	r2, r5
 800035c:	2105      	movs	r1, #5
 800035e:	2028      	movs	r0, #40	@ 0x28
 8000360:	f000 fab6 	bl	80008d0 <HAL_NVIC_SetPriority>
 8000364:	2028      	movs	r0, #40	@ 0x28
 8000366:	f000 fae3 	bl	8000930 <HAL_NVIC_EnableIRQ>
 800036a:	6963      	ldr	r3, [r4, #20]
 800036c:	462a      	mov	r2, r5
 800036e:	433b      	orrs	r3, r7
 8000370:	6163      	str	r3, [r4, #20]
 8000372:	6963      	ldr	r3, [r4, #20]
 8000374:	2105      	movs	r1, #5
 8000376:	403b      	ands	r3, r7
 8000378:	200f      	movs	r0, #15
 800037a:	9304      	str	r3, [sp, #16]
 800037c:	9b04      	ldr	r3, [sp, #16]
 800037e:	f000 faa7 	bl	80008d0 <HAL_NVIC_SetPriority>
 8000382:	200f      	movs	r0, #15
 8000384:	f000 fad4 	bl	8000930 <HAL_NVIC_EnableIRQ>
 8000388:	462a      	mov	r2, r5
 800038a:	2105      	movs	r1, #5
 800038c:	2010      	movs	r0, #16
 800038e:	f000 fa9f 	bl	80008d0 <HAL_NVIC_SetPriority>
 8000392:	2010      	movs	r0, #16
 8000394:	f000 facc 	bl	8000930 <HAL_NVIC_EnableIRQ>
 8000398:	4c2e      	ldr	r4, [pc, #184]	@ (8000454 <main+0x1bc>)
 800039a:	482f      	ldr	r0, [pc, #188]	@ (8000458 <main+0x1c0>)
 800039c:	4b2f      	ldr	r3, [pc, #188]	@ (800045c <main+0x1c4>)
 800039e:	e9c0 5502 	strd	r5, r5, [r0, #8]
 80003a2:	e9c0 4300 	strd	r4, r3, [r0]
 80003a6:	f44f 4380 	mov.w	r3, #16384	@ 0x4000
 80003aa:	e9c0 5506 	strd	r5, r5, [r0, #24]
 80003ae:	e9c0 3504 	strd	r3, r5, [r0, #16]
 80003b2:	6205      	str	r5, [r0, #32]
 80003b4:	f000 fd38 	bl	8000e28 <HAL_I2C_Init>
 80003b8:	4603      	mov	r3, r0
 80003ba:	b108      	cbz	r0, 80003c0 <main+0x128>
 80003bc:	b672      	cpsid	i
 80003be:	e7fe      	b.n	80003be <main+0x126>
 80003c0:	270a      	movs	r7, #10
 80003c2:	4827      	ldr	r0, [pc, #156]	@ (8000460 <main+0x1c8>)
 80003c4:	4a27      	ldr	r2, [pc, #156]	@ (8000464 <main+0x1cc>)
 80003c6:	e9c0 3302 	strd	r3, r3, [r0, #8]
 80003ca:	e9c0 2300 	strd	r2, r3, [r0]
 80003ce:	e9c0 3304 	strd	r3, r3, [r0, #16]
 80003d2:	e9c0 3308 	strd	r3, r3, [r0, #32]
 80003d6:	6183      	str	r3, [r0, #24]
 80003d8:	6283      	str	r3, [r0, #40]	@ 0x28
 80003da:	62c7      	str	r7, [r0, #44]	@ 0x2c
 80003dc:	f001 feac 	bl	8002138 <HAL_SPI_Init>
 80003e0:	4603      	mov	r3, r0
 80003e2:	b108      	cbz	r0, 80003e8 <main+0x150>
 80003e4:	b672      	cpsid	i
 80003e6:	e7fe      	b.n	80003e6 <main+0x14e>
 80003e8:	f44f 5216 	mov.w	r2, #9600	@ 0x2580
 80003ec:	481e      	ldr	r0, [pc, #120]	@ (8000468 <main+0x1d0>)
 80003ee:	491f      	ldr	r1, [pc, #124]	@ (800046c <main+0x1d4>)
 80003f0:	e9c0 3302 	strd	r3, r3, [r0, #8]
 80003f4:	e9c0 1200 	strd	r1, r2, [r0]
 80003f8:	220c      	movs	r2, #12
 80003fa:	6103      	str	r3, [r0, #16]
 80003fc:	e9c0 2305 	strd	r2, r3, [r0, #20]
 8000400:	61c3      	str	r3, [r0, #28]
 8000402:	f002 f80b 	bl	800241c <HAL_UART_Init>
 8000406:	4606      	mov	r6, r0
 8000408:	b108      	cbz	r0, 800040e <main+0x176>
 800040a:	b672      	cpsid	i
 800040c:	e7fe      	b.n	800040c <main+0x174>
 800040e:	4d18      	ldr	r5, [pc, #96]	@ (8000470 <main+0x1d8>)
 8000410:	ac09      	add	r4, sp, #36	@ 0x24
 8000412:	cd0f      	ldmia	r5!, {r0, r1, r2, r3}
 8000414:	c40f      	stmia	r4!, {r0, r1, r2, r3}
 8000416:	e895 0007 	ldmia.w	r5, {r0, r1, r2}
 800041a:	e884 0007 	stmia.w	r4, {r0, r1, r2}
 800041e:	4631      	mov	r1, r6
 8000420:	a809      	add	r0, sp, #36	@ 0x24
 8000422:	f002 fb15 	bl	8002a50 <osThreadCreate>
 8000426:	4b13      	ldr	r3, [pc, #76]	@ (8000474 <main+0x1dc>)
 8000428:	f44f 7280 	mov.w	r2, #256	@ 0x100
 800042c:	6018      	str	r0, [r3, #0]
 800042e:	ab03      	add	r3, sp, #12
 8000430:	e9cd 7300 	strd	r7, r3, [sp]
 8000434:	4910      	ldr	r1, [pc, #64]	@ (8000478 <main+0x1e0>)
 8000436:	4633      	mov	r3, r6
 8000438:	4810      	ldr	r0, [pc, #64]	@ (800047c <main+0x1e4>)
 800043a:	f002 fd23 	bl	8002e84 <xTaskCreate>
 800043e:	f002 fb02 	bl	8002a46 <osKernelStart>
 8000442:	e7fe      	b.n	8000442 <main+0x1aa>
 8000444:	40021000 	.word	0x40021000
 8000448:	40010800 	.word	0x40010800
 800044c:	40011000 	.word	0x40011000
 8000450:	10110000 	.word	0x10110000
 8000454:	40005800 	.word	0x40005800
 8000458:	20000460 	.word	0x20000460
 800045c:	000186a0 	.word	0x000186a0
 8000460:	200003c4 	.word	0x200003c4
 8000464:	40003800 	.word	0x40003800
 8000468:	2000037c 	.word	0x2000037c
 800046c:	40004400 	.word	0x40004400
 8000470:	080047a4 	.word	0x080047a4
 8000474:	20000334 	.word	0x20000334
 8000478:	08004810 	.word	0x08004810
 800047c:	08000169 	.word	0x08000169

08000480 <Error_Handler>:
 8000480:	b672      	cpsid	i
 8000482:	e7fe      	b.n	8000482 <Error_Handler+0x2>

08000484 <HAL_MspInit>:
 8000484:	4b11      	ldr	r3, [pc, #68]	@ (80004cc <HAL_MspInit+0x48>)
 8000486:	b507      	push	{r0, r1, r2, lr}
 8000488:	699a      	ldr	r2, [r3, #24]
 800048a:	210f      	movs	r1, #15
 800048c:	f042 0201 	orr.w	r2, r2, #1
 8000490:	619a      	str	r2, [r3, #24]
 8000492:	699a      	ldr	r2, [r3, #24]
 8000494:	f06f 0001 	mvn.w	r0, #1
 8000498:	f002 0201 	and.w	r2, r2, #1
 800049c:	9200      	str	r2, [sp, #0]
 800049e:	9a00      	ldr	r2, [sp, #0]
 80004a0:	69da      	ldr	r2, [r3, #28]
 80004a2:	f042 5280 	orr.w	r2, r2, #268435456	@ 0x10000000
 80004a6:	61da      	str	r2, [r3, #28]
 80004a8:	69db      	ldr	r3, [r3, #28]
 80004aa:	2200      	movs	r2, #0
 80004ac:	f003 5380 	and.w	r3, r3, #268435456	@ 0x10000000
 80004b0:	9301      	str	r3, [sp, #4]
 80004b2:	9b01      	ldr	r3, [sp, #4]
 80004b4:	f000 fa0c 	bl	80008d0 <HAL_NVIC_SetPriority>
 80004b8:	4a05      	ldr	r2, [pc, #20]	@ (80004d0 <HAL_MspInit+0x4c>)
 80004ba:	6853      	ldr	r3, [r2, #4]
 80004bc:	f023 63e0 	bic.w	r3, r3, #117440512	@ 0x7000000
 80004c0:	f043 7300 	orr.w	r3, r3, #33554432	@ 0x2000000
 80004c4:	6053      	str	r3, [r2, #4]
 80004c6:	b003      	add	sp, #12
 80004c8:	f85d fb04 	ldr.w	pc, [sp], #4
 80004cc:	40021000 	.word	0x40021000
 80004d0:	40010000 	.word	0x40010000

080004d4 <HAL_I2C_MspInit>:
 80004d4:	b530      	push	{r4, r5, lr}
 80004d6:	4605      	mov	r5, r0
 80004d8:	b087      	sub	sp, #28
 80004da:	2210      	movs	r2, #16
 80004dc:	2100      	movs	r1, #0
 80004de:	a802      	add	r0, sp, #8
 80004e0:	f003 fb36 	bl	8003b50 <memset>
 80004e4:	682a      	ldr	r2, [r5, #0]
 80004e6:	4b23      	ldr	r3, [pc, #140]	@ (8000574 <HAL_I2C_MspInit+0xa0>)
 80004e8:	429a      	cmp	r2, r3
 80004ea:	d141      	bne.n	8000570 <HAL_I2C_MspInit+0x9c>
 80004ec:	4c22      	ldr	r4, [pc, #136]	@ (8000578 <HAL_I2C_MspInit+0xa4>)
 80004ee:	f44f 6240 	mov.w	r2, #3072	@ 0xc00
 80004f2:	69a3      	ldr	r3, [r4, #24]
 80004f4:	4821      	ldr	r0, [pc, #132]	@ (800057c <HAL_I2C_MspInit+0xa8>)
 80004f6:	f043 0308 	orr.w	r3, r3, #8
 80004fa:	61a3      	str	r3, [r4, #24]
 80004fc:	69a3      	ldr	r3, [r4, #24]
 80004fe:	a902      	add	r1, sp, #8
 8000500:	f003 0308 	and.w	r3, r3, #8
 8000504:	9300      	str	r3, [sp, #0]
 8000506:	9b00      	ldr	r3, [sp, #0]
 8000508:	2312      	movs	r3, #18
 800050a:	e9cd 2302 	strd	r2, r3, [sp, #8]
 800050e:	2303      	movs	r3, #3
 8000510:	9305      	str	r3, [sp, #20]
 8000512:	f000 fb99 	bl	8000c48 <HAL_GPIO_Init>
 8000516:	69e3      	ldr	r3, [r4, #28]
 8000518:	2280      	movs	r2, #128	@ 0x80
 800051a:	f443 0380 	orr.w	r3, r3, #4194304	@ 0x400000
 800051e:	61e3      	str	r3, [r4, #28]
 8000520:	69e3      	ldr	r3, [r4, #28]
 8000522:	4c17      	ldr	r4, [pc, #92]	@ (8000580 <HAL_I2C_MspInit+0xac>)
 8000524:	f403 0380 	and.w	r3, r3, #4194304	@ 0x400000
 8000528:	9301      	str	r3, [sp, #4]
 800052a:	9b01      	ldr	r3, [sp, #4]
 800052c:	2300      	movs	r3, #0
 800052e:	4915      	ldr	r1, [pc, #84]	@ (8000584 <HAL_I2C_MspInit+0xb0>)
 8000530:	4620      	mov	r0, r4
 8000532:	e9c4 1300 	strd	r1, r3, [r4]
 8000536:	e9c4 2303 	strd	r2, r3, [r4, #12]
 800053a:	e9c4 3305 	strd	r3, r3, [r4, #20]
 800053e:	60a3      	str	r3, [r4, #8]
 8000540:	61e3      	str	r3, [r4, #28]
 8000542:	f000 fa17 	bl	8000974 <HAL_DMA_Init>
 8000546:	b108      	cbz	r0, 800054c <HAL_I2C_MspInit+0x78>
 8000548:	f7ff ff9a 	bl	8000480 <Error_Handler>
 800054c:	2200      	movs	r2, #0
 800054e:	2105      	movs	r1, #5
 8000550:	2021      	movs	r0, #33	@ 0x21
 8000552:	63ac      	str	r4, [r5, #56]	@ 0x38
 8000554:	6265      	str	r5, [r4, #36]	@ 0x24
 8000556:	f000 f9bb 	bl	80008d0 <HAL_NVIC_SetPriority>
 800055a:	2021      	movs	r0, #33	@ 0x21
 800055c:	f000 f9e8 	bl	8000930 <HAL_NVIC_EnableIRQ>
 8000560:	2022      	movs	r0, #34	@ 0x22
 8000562:	2200      	movs	r2, #0
 8000564:	2105      	movs	r1, #5
 8000566:	f000 f9b3 	bl	80008d0 <HAL_NVIC_SetPriority>
 800056a:	2022      	movs	r0, #34	@ 0x22
 800056c:	f000 f9e0 	bl	8000930 <HAL_NVIC_EnableIRQ>
 8000570:	b007      	add	sp, #28
 8000572:	bd30      	pop	{r4, r5, pc}
 8000574:	40005800 	.word	0x40005800
 8000578:	40021000 	.word	0x40021000
 800057c:	40010c00 	.word	0x40010c00
 8000580:	2000041c 	.word	0x2000041c
 8000584:	40020058 	.word	0x40020058

08000588 <HAL_SPI_MspInit>:
 8000588:	b510      	push	{r4, lr}
 800058a:	4604      	mov	r4, r0
 800058c:	b086      	sub	sp, #24
 800058e:	2210      	movs	r2, #16
 8000590:	2100      	movs	r1, #0
 8000592:	a802      	add	r0, sp, #8
 8000594:	f003 fadc 	bl	8003b50 <memset>
 8000598:	6822      	ldr	r2, [r4, #0]
 800059a:	4b19      	ldr	r3, [pc, #100]	@ (8000600 <HAL_SPI_MspInit+0x78>)
 800059c:	429a      	cmp	r2, r3
 800059e:	d12d      	bne.n	80005fc <HAL_SPI_MspInit+0x74>
 80005a0:	f503 33ec 	add.w	r3, r3, #120832	@ 0x1d800
 80005a4:	69da      	ldr	r2, [r3, #28]
 80005a6:	4817      	ldr	r0, [pc, #92]	@ (8000604 <HAL_SPI_MspInit+0x7c>)
 80005a8:	f442 4280 	orr.w	r2, r2, #16384	@ 0x4000
 80005ac:	61da      	str	r2, [r3, #28]
 80005ae:	69da      	ldr	r2, [r3, #28]
 80005b0:	a902      	add	r1, sp, #8
 80005b2:	f402 4280 	and.w	r2, r2, #16384	@ 0x4000
 80005b6:	9200      	str	r2, [sp, #0]
 80005b8:	9a00      	ldr	r2, [sp, #0]
 80005ba:	699a      	ldr	r2, [r3, #24]
 80005bc:	f042 0208 	orr.w	r2, r2, #8
 80005c0:	619a      	str	r2, [r3, #24]
 80005c2:	699b      	ldr	r3, [r3, #24]
 80005c4:	f003 0308 	and.w	r3, r3, #8
 80005c8:	9301      	str	r3, [sp, #4]
 80005ca:	9b01      	ldr	r3, [sp, #4]
 80005cc:	f44f 5340 	mov.w	r3, #12288	@ 0x3000
 80005d0:	9302      	str	r3, [sp, #8]
 80005d2:	f000 fb39 	bl	8000c48 <HAL_GPIO_Init>
 80005d6:	f44f 4280 	mov.w	r2, #16384	@ 0x4000
 80005da:	2302      	movs	r3, #2
 80005dc:	e9cd 2302 	strd	r2, r3, [sp, #8]
 80005e0:	2303      	movs	r3, #3
 80005e2:	4808      	ldr	r0, [pc, #32]	@ (8000604 <HAL_SPI_MspInit+0x7c>)
 80005e4:	a902      	add	r1, sp, #8
 80005e6:	9305      	str	r3, [sp, #20]
 80005e8:	f000 fb2e 	bl	8000c48 <HAL_GPIO_Init>
 80005ec:	2024      	movs	r0, #36	@ 0x24
 80005ee:	2200      	movs	r2, #0
 80005f0:	2105      	movs	r1, #5
 80005f2:	f000 f96d 	bl	80008d0 <HAL_NVIC_SetPriority>
 80005f6:	2024      	movs	r0, #36	@ 0x24
 80005f8:	f000 f99a 	bl	8000930 <HAL_NVIC_EnableIRQ>
 80005fc:	b006      	add	sp, #24
 80005fe:	bd10      	pop	{r4, pc}
 8000600:	40003800 	.word	0x40003800
 8000604:	40010c00 	.word	0x40010c00

08000608 <HAL_UART_MspInit>:
 8000608:	b530      	push	{r4, r5, lr}
 800060a:	4605      	mov	r5, r0
 800060c:	b087      	sub	sp, #28
 800060e:	2210      	movs	r2, #16
 8000610:	2100      	movs	r1, #0
 8000612:	a802      	add	r0, sp, #8
 8000614:	f003 fa9c 	bl	8003b50 <memset>
 8000618:	682a      	ldr	r2, [r5, #0]
 800061a:	4b1f      	ldr	r3, [pc, #124]	@ (8000698 <HAL_UART_MspInit+0x90>)
 800061c:	429a      	cmp	r2, r3
 800061e:	d138      	bne.n	8000692 <HAL_UART_MspInit+0x8a>
 8000620:	f503 33e6 	add.w	r3, r3, #117760	@ 0x1cc00
 8000624:	69da      	ldr	r2, [r3, #28]
 8000626:	481d      	ldr	r0, [pc, #116]	@ (800069c <HAL_UART_MspInit+0x94>)
 8000628:	f442 3200 	orr.w	r2, r2, #131072	@ 0x20000
 800062c:	61da      	str	r2, [r3, #28]
 800062e:	69da      	ldr	r2, [r3, #28]
 8000630:	a902      	add	r1, sp, #8
 8000632:	f402 3200 	and.w	r2, r2, #131072	@ 0x20000
 8000636:	9200      	str	r2, [sp, #0]
 8000638:	9a00      	ldr	r2, [sp, #0]
 800063a:	699a      	ldr	r2, [r3, #24]
 800063c:	4c18      	ldr	r4, [pc, #96]	@ (80006a0 <HAL_UART_MspInit+0x98>)
 800063e:	f042 0204 	orr.w	r2, r2, #4
 8000642:	619a      	str	r2, [r3, #24]
 8000644:	699b      	ldr	r3, [r3, #24]
 8000646:	220c      	movs	r2, #12
 8000648:	f003 0304 	and.w	r3, r3, #4
 800064c:	9301      	str	r3, [sp, #4]
 800064e:	9b01      	ldr	r3, [sp, #4]
 8000650:	2302      	movs	r3, #2
 8000652:	e9cd 2302 	strd	r2, r3, [sp, #8]
 8000656:	9305      	str	r3, [sp, #20]
 8000658:	f000 faf6 	bl	8000c48 <HAL_GPIO_Init>
 800065c:	2300      	movs	r3, #0
 800065e:	2280      	movs	r2, #128	@ 0x80
 8000660:	4910      	ldr	r1, [pc, #64]	@ (80006a4 <HAL_UART_MspInit+0x9c>)
 8000662:	4620      	mov	r0, r4
 8000664:	e9c4 1300 	strd	r1, r3, [r4]
 8000668:	e9c4 2303 	strd	r2, r3, [r4, #12]
 800066c:	e9c4 3305 	strd	r3, r3, [r4, #20]
 8000670:	60a3      	str	r3, [r4, #8]
 8000672:	61e3      	str	r3, [r4, #28]
 8000674:	f000 f97e 	bl	8000974 <HAL_DMA_Init>
 8000678:	b108      	cbz	r0, 800067e <HAL_UART_MspInit+0x76>
 800067a:	f7ff ff01 	bl	8000480 <Error_Handler>
 800067e:	2026      	movs	r0, #38	@ 0x26
 8000680:	2200      	movs	r2, #0
 8000682:	2105      	movs	r1, #5
 8000684:	63ec      	str	r4, [r5, #60]	@ 0x3c
 8000686:	6265      	str	r5, [r4, #36]	@ 0x24
 8000688:	f000 f922 	bl	80008d0 <HAL_NVIC_SetPriority>
 800068c:	2026      	movs	r0, #38	@ 0x26
 800068e:	f000 f94f 	bl	8000930 <HAL_NVIC_EnableIRQ>
 8000692:	b007      	add	sp, #28
 8000694:	bd30      	pop	{r4, r5, pc}
 8000696:	bf00      	nop
 8000698:	40004400 	.word	0x40004400
 800069c:	40010800 	.word	0x40010800
 80006a0:	20000338 	.word	0x20000338
 80006a4:	4002006c 	.word	0x4002006c

080006a8 <NMI_Handler>:
 80006a8:	e7fe      	b.n	80006a8 <NMI_Handler>

080006aa <HardFault_Handler>:
 80006aa:	e7fe      	b.n	80006aa <HardFault_Handler>

080006ac <MemManage_Handler>:
 80006ac:	e7fe      	b.n	80006ac <MemManage_Handler>

080006ae <BusFault_Handler>:
 80006ae:	e7fe      	b.n	80006ae <BusFault_Handler>

080006b0 <UsageFault_Handler>:
 80006b0:	e7fe      	b.n	80006b0 <UsageFault_Handler>

080006b2 <DebugMon_Handler>:
 80006b2:	4770      	bx	lr

080006b4 <SysTick_Handler>:
 80006b4:	b508      	push	{r3, lr}
 80006b6:	f000 f8e7 	bl	8000888 <HAL_IncTick>
 80006ba:	f002 fdfd 	bl	80032b8 <xTaskGetSchedulerState>
 80006be:	2801      	cmp	r0, #1
 80006c0:	d003      	beq.n	80006ca <SysTick_Handler+0x16>
 80006c2:	e8bd 4008 	ldmia.w	sp!, {r3, lr}
 80006c6:	f002 beb5 	b.w	8003434 <xPortSysTickHandler>
 80006ca:	bd08      	pop	{r3, pc}

080006cc <DMA1_Channel5_IRQHandler>:
 80006cc:	4801      	ldr	r0, [pc, #4]	@ (80006d4 <DMA1_Channel5_IRQHandler+0x8>)
 80006ce:	f000 ba23 	b.w	8000b18 <HAL_DMA_IRQHandler>
 80006d2:	bf00      	nop
 80006d4:	2000041c 	.word	0x2000041c

080006d8 <DMA1_Channel6_IRQHandler>:
 80006d8:	b508      	push	{r3, lr}
 80006da:	4804      	ldr	r0, [pc, #16]	@ (80006ec <DMA1_Channel6_IRQHandler+0x14>)
 80006dc:	f003 f8e8 	bl	80038b0 <iprintf>
 80006e0:	e8bd 4008 	ldmia.w	sp!, {r3, lr}
 80006e4:	4802      	ldr	r0, [pc, #8]	@ (80006f0 <DMA1_Channel6_IRQHandler+0x18>)
 80006e6:	f000 ba17 	b.w	8000b18 <HAL_DMA_IRQHandler>
 80006ea:	bf00      	nop
 80006ec:	08004824 	.word	0x08004824
 80006f0:	20000338 	.word	0x20000338

080006f4 <I2C2_EV_IRQHandler>:
 80006f4:	4801      	ldr	r0, [pc, #4]	@ (80006fc <I2C2_EV_IRQHandler+0x8>)
 80006f6:	f000 bda9 	b.w	800124c <HAL_I2C_EV_IRQHandler>
 80006fa:	bf00      	nop
 80006fc:	20000460 	.word	0x20000460

08000700 <I2C2_ER_IRQHandler>:
 8000700:	4801      	ldr	r0, [pc, #4]	@ (8000708 <I2C2_ER_IRQHandler+0x8>)
 8000702:	f001 b9fb 	b.w	8001afc <HAL_I2C_ER_IRQHandler>
 8000706:	bf00      	nop
 8000708:	20000460 	.word	0x20000460

0800070c <SPI2_IRQHandler>:
 800070c:	4801      	ldr	r0, [pc, #4]	@ (8000714 <SPI2_IRQHandler+0x8>)
 800070e:	f001 bd6d 	b.w	80021ec <HAL_SPI_IRQHandler>
 8000712:	bf00      	nop
 8000714:	200003c4 	.word	0x200003c4

08000718 <USART2_IRQHandler>:
 8000718:	b508      	push	{r3, lr}
 800071a:	4804      	ldr	r0, [pc, #16]	@ (800072c <USART2_IRQHandler+0x14>)
 800071c:	f003 f8c8 	bl	80038b0 <iprintf>
 8000720:	e8bd 4008 	ldmia.w	sp!, {r3, lr}
 8000724:	4802      	ldr	r0, [pc, #8]	@ (8000730 <USART2_IRQHandler+0x18>)
 8000726:	f001 bfe7 	b.w	80026f8 <HAL_UART_IRQHandler>
 800072a:	bf00      	nop
 800072c:	08004846 	.word	0x08004846
 8000730:	2000037c 	.word	0x2000037c

08000734 <EXTI15_10_IRQHandler>:
 8000734:	f44f 5000 	mov.w	r0, #8192	@ 0x2000
 8000738:	f000 bb6a 	b.w	8000e10 <HAL_GPIO_EXTI_IRQHandler>

0800073c <_read>:
 800073c:	b570      	push	{r4, r5, r6, lr}
 800073e:	460d      	mov	r5, r1
 8000740:	4614      	mov	r4, r2
 8000742:	460e      	mov	r6, r1
 8000744:	1b73      	subs	r3, r6, r5
 8000746:	429c      	cmp	r4, r3
 8000748:	dc01      	bgt.n	800074e <_read+0x12>
 800074a:	4620      	mov	r0, r4
 800074c:	bd70      	pop	{r4, r5, r6, pc}
 800074e:	f3af 8000 	nop.w
 8000752:	f806 0b01 	strb.w	r0, [r6], #1
 8000756:	e7f5      	b.n	8000744 <_read+0x8>

08000758 <_write>:
 8000758:	b570      	push	{r4, r5, r6, lr}
 800075a:	460d      	mov	r5, r1
 800075c:	4614      	mov	r4, r2
 800075e:	460e      	mov	r6, r1
 8000760:	1b73      	subs	r3, r6, r5
 8000762:	429c      	cmp	r4, r3
 8000764:	dc01      	bgt.n	800076a <_write+0x12>
 8000766:	4620      	mov	r0, r4
 8000768:	bd70      	pop	{r4, r5, r6, pc}
 800076a:	f816 0b01 	ldrb.w	r0, [r6], #1
 800076e:	f7ff fd4b 	bl	8000208 <__io_putchar>
 8000772:	e7f5      	b.n	8000760 <_write+0x8>

08000774 <_close>:
 8000774:	f04f 30ff 	mov.w	r0, #4294967295
 8000778:	4770      	bx	lr

0800077a <_fstat>:
 800077a:	f44f 5300 	mov.w	r3, #8192	@ 0x2000
 800077e:	2000      	movs	r0, #0
 8000780:	604b      	str	r3, [r1, #4]
 8000782:	4770      	bx	lr

08000784 <_isatty>:
 8000784:	2001      	movs	r0, #1
 8000786:	4770      	bx	lr

08000788 <_lseek>:
 8000788:	2000      	movs	r0, #0
 800078a:	4770      	bx	lr

0800078c <_sbrk>:
 800078c:	4a0b      	ldr	r2, [pc, #44]	@ (80007bc <_sbrk+0x30>)
 800078e:	4603      	mov	r3, r0
 8000790:	6811      	ldr	r1, [r2, #0]
 8000792:	b510      	push	{r4, lr}
 8000794:	b909      	cbnz	r1, 800079a <_sbrk+0xe>
 8000796:	490a      	ldr	r1, [pc, #40]	@ (80007c0 <_sbrk+0x34>)
 8000798:	6011      	str	r1, [r2, #0]
 800079a:	6810      	ldr	r0, [r2, #0]
 800079c:	4909      	ldr	r1, [pc, #36]	@ (80007c4 <_sbrk+0x38>)
 800079e:	4c0a      	ldr	r4, [pc, #40]	@ (80007c8 <_sbrk+0x3c>)
 80007a0:	4403      	add	r3, r0
 80007a2:	1b09      	subs	r1, r1, r4
 80007a4:	428b      	cmp	r3, r1
 80007a6:	d906      	bls.n	80007b6 <_sbrk+0x2a>
 80007a8:	f003 fa7e 	bl	8003ca8 <__errno>
 80007ac:	230c      	movs	r3, #12
 80007ae:	6003      	str	r3, [r0, #0]
 80007b0:	f04f 30ff 	mov.w	r0, #4294967295
 80007b4:	bd10      	pop	{r4, pc}
 80007b6:	6013      	str	r3, [r2, #0]
 80007b8:	e7fc      	b.n	80007b4 <_sbrk+0x28>
 80007ba:	bf00      	nop
 80007bc:	200004b4 	.word	0x200004b4
 80007c0:	20001358 	.word	0x20001358
 80007c4:	20005000 	.word	0x20005000
 80007c8:	00000400 	.word	0x00000400

080007cc <SystemInit>:
 80007cc:	4770      	bx	lr
	...

080007d0 <Reset_Handler>:
 80007d0:	f7ff fffc 	bl	80007cc <SystemInit>
 80007d4:	480b      	ldr	r0, [pc, #44]	@ (8000804 <LoopFillZerobss+0xe>)
 80007d6:	490c      	ldr	r1, [pc, #48]	@ (8000808 <LoopFillZerobss+0x12>)
 80007d8:	4a0c      	ldr	r2, [pc, #48]	@ (800080c <LoopFillZerobss+0x16>)
 80007da:	2300      	movs	r3, #0
 80007dc:	e002      	b.n	80007e4 <LoopCopyDataInit>

080007de <CopyDataInit>:
 80007de:	58d4      	ldr	r4, [r2, r3]
 80007e0:	50c4      	str	r4, [r0, r3]
 80007e2:	3304      	adds	r3, #4

080007e4 <LoopCopyDataInit>:
 80007e4:	18c4      	adds	r4, r0, r3
 80007e6:	428c      	cmp	r4, r1
 80007e8:	d3f9      	bcc.n	80007de <CopyDataInit>
 80007ea:	4a09      	ldr	r2, [pc, #36]	@ (8000810 <LoopFillZerobss+0x1a>)
 80007ec:	4c09      	ldr	r4, [pc, #36]	@ (8000814 <LoopFillZerobss+0x1e>)
 80007ee:	2300      	movs	r3, #0
 80007f0:	e001      	b.n	80007f6 <LoopFillZerobss>

080007f2 <FillZerobss>:
 80007f2:	6013      	str	r3, [r2, #0]
 80007f4:	3204      	adds	r2, #4

080007f6 <LoopFillZerobss>:
 80007f6:	42a2      	cmp	r2, r4
 80007f8:	d3fb      	bcc.n	80007f2 <FillZerobss>
 80007fa:	f003 fa5b 	bl	8003cb4 <__libc_init_array>
 80007fe:	f7ff fd4b 	bl	8000298 <main>
 8000802:	4770      	bx	lr
 8000804:	20000000 	.word	0x20000000
 8000808:	2000006c 	.word	0x2000006c
 800080c:	080048c4 	.word	0x080048c4
 8000810:	2000006c 	.word	0x2000006c
 8000814:	20001358 	.word	0x20001358

08000818 <ADC1_2_IRQHandler>:
 8000818:	e7fe      	b.n	8000818 <ADC1_2_IRQHandler>
	...

0800081c <HAL_InitTick>:
 800081c:	b538      	push	{r3, r4, r5, lr}
 800081e:	4b0e      	ldr	r3, [pc, #56]	@ (8000858 <HAL_InitTick+0x3c>)
 8000820:	4605      	mov	r5, r0
 8000822:	781a      	ldrb	r2, [r3, #0]
 8000824:	f44f 737a 	mov.w	r3, #1000	@ 0x3e8
 8000828:	fbb3 f3f2 	udiv	r3, r3, r2
 800082c:	4a0b      	ldr	r2, [pc, #44]	@ (800085c <HAL_InitTick+0x40>)
 800082e:	6810      	ldr	r0, [r2, #0]
 8000830:	fbb0 f0f3 	udiv	r0, r0, r3
 8000834:	f000 f88a 	bl	800094c <HAL_SYSTICK_Config>
 8000838:	4604      	mov	r4, r0
 800083a:	b958      	cbnz	r0, 8000854 <HAL_InitTick+0x38>
 800083c:	2d0f      	cmp	r5, #15
 800083e:	d809      	bhi.n	8000854 <HAL_InitTick+0x38>
 8000840:	4602      	mov	r2, r0
 8000842:	4629      	mov	r1, r5
 8000844:	f04f 30ff 	mov.w	r0, #4294967295
 8000848:	f000 f842 	bl	80008d0 <HAL_NVIC_SetPriority>
 800084c:	4620      	mov	r0, r4
 800084e:	4b04      	ldr	r3, [pc, #16]	@ (8000860 <HAL_InitTick+0x44>)
 8000850:	601d      	str	r5, [r3, #0]
 8000852:	bd38      	pop	{r3, r4, r5, pc}
 8000854:	2001      	movs	r0, #1
 8000856:	e7fc      	b.n	8000852 <HAL_InitTick+0x36>
 8000858:	20000004 	.word	0x20000004
 800085c:	20000000 	.word	0x20000000
 8000860:	20000008 	.word	0x20000008

08000864 <HAL_Init>:
 8000864:	4a07      	ldr	r2, [pc, #28]	@ (8000884 <HAL_Init+0x20>)
 8000866:	b508      	push	{r3, lr}
 8000868:	6813      	ldr	r3, [r2, #0]
 800086a:	2003      	movs	r0, #3
 800086c:	f043 0310 	orr.w	r3, r3, #16
 8000870:	6013      	str	r3, [r2, #0]
 8000872:	f000 f81b 	bl	80008ac <HAL_NVIC_SetPriorityGrouping>
 8000876:	200f      	movs	r0, #15
 8000878:	f7ff ffd0 	bl	800081c <HAL_InitTick>
 800087c:	f7ff fe02 	bl	8000484 <HAL_MspInit>
 8000880:	2000      	movs	r0, #0
 8000882:	bd08      	pop	{r3, pc}
 8000884:	40022000 	.word	0x40022000

08000888 <HAL_IncTick>:
 8000888:	4a03      	ldr	r2, [pc, #12]	@ (8000898 <HAL_IncTick+0x10>)
 800088a:	4b04      	ldr	r3, [pc, #16]	@ (800089c <HAL_IncTick+0x14>)
 800088c:	6811      	ldr	r1, [r2, #0]
 800088e:	781b      	ldrb	r3, [r3, #0]
 8000890:	440b      	add	r3, r1
 8000892:	6013      	str	r3, [r2, #0]
 8000894:	4770      	bx	lr
 8000896:	bf00      	nop
 8000898:	200004b8 	.word	0x200004b8
 800089c:	20000004 	.word	0x20000004

080008a0 <HAL_GetTick>:
 80008a0:	4b01      	ldr	r3, [pc, #4]	@ (80008a8 <HAL_GetTick+0x8>)
 80008a2:	6818      	ldr	r0, [r3, #0]
 80008a4:	4770      	bx	lr
 80008a6:	bf00      	nop
 80008a8:	200004b8 	.word	0x200004b8

080008ac <HAL_NVIC_SetPriorityGrouping>:
 80008ac:	4907      	ldr	r1, [pc, #28]	@ (80008cc <HAL_NVIC_SetPriorityGrouping+0x20>)
 80008ae:	0203      	lsls	r3, r0, #8
 80008b0:	68ca      	ldr	r2, [r1, #12]
 80008b2:	f403 63e0 	and.w	r3, r3, #1792	@ 0x700
 80008b6:	f422 62e0 	bic.w	r2, r2, #1792	@ 0x700
 80008ba:	0412      	lsls	r2, r2, #16
 80008bc:	0c12      	lsrs	r2, r2, #16
 80008be:	4313      	orrs	r3, r2
 80008c0:	f043 63bf 	orr.w	r3, r3, #100139008	@ 0x5f80000
 80008c4:	f443 3300 	orr.w	r3, r3, #131072	@ 0x20000
 80008c8:	60cb      	str	r3, [r1, #12]
 80008ca:	4770      	bx	lr
 80008cc:	e000ed00 	.word	0xe000ed00

080008d0 <HAL_NVIC_SetPriority>:
 80008d0:	4b15      	ldr	r3, [pc, #84]	@ (8000928 <HAL_NVIC_SetPriority+0x58>)
 80008d2:	b530      	push	{r4, r5, lr}
 80008d4:	68dc      	ldr	r4, [r3, #12]
 80008d6:	f3c4 2402 	ubfx	r4, r4, #8, #3
 80008da:	f1c4 0307 	rsb	r3, r4, #7
 80008de:	1d25      	adds	r5, r4, #4
 80008e0:	2b04      	cmp	r3, #4
 80008e2:	bf28      	it	cs
 80008e4:	2304      	movcs	r3, #4
 80008e6:	2d06      	cmp	r5, #6
 80008e8:	f04f 35ff 	mov.w	r5, #4294967295
 80008ec:	bf94      	ite	ls
 80008ee:	2400      	movls	r4, #0
 80008f0:	3c03      	subhi	r4, #3
 80008f2:	fa05 f303 	lsl.w	r3, r5, r3
 80008f6:	ea21 0303 	bic.w	r3, r1, r3
 80008fa:	40a5      	lsls	r5, r4
 80008fc:	ea22 0205 	bic.w	r2, r2, r5
 8000900:	40a3      	lsls	r3, r4
 8000902:	2800      	cmp	r0, #0
 8000904:	ea43 0302 	orr.w	r3, r3, r2
 8000908:	bfac      	ite	ge
 800090a:	f100 4060 	addge.w	r0, r0, #3758096384	@ 0xe0000000
 800090e:	4a07      	ldrlt	r2, [pc, #28]	@ (800092c <HAL_NVIC_SetPriority+0x5c>)
 8000910:	ea4f 1303 	mov.w	r3, r3, lsl #4
 8000914:	b2db      	uxtb	r3, r3
 8000916:	bfab      	itete	ge
 8000918:	f500 4061 	addge.w	r0, r0, #57600	@ 0xe100
 800091c:	f000 000f 	andlt.w	r0, r0, #15
 8000920:	f880 3300 	strbge.w	r3, [r0, #768]	@ 0x300
 8000924:	5413      	strblt	r3, [r2, r0]
 8000926:	bd30      	pop	{r4, r5, pc}
 8000928:	e000ed00 	.word	0xe000ed00
 800092c:	e000ed14 	.word	0xe000ed14

08000930 <HAL_NVIC_EnableIRQ>:
 8000930:	2800      	cmp	r0, #0
 8000932:	db07      	blt.n	8000944 <HAL_NVIC_EnableIRQ+0x14>
 8000934:	2301      	movs	r3, #1
 8000936:	0941      	lsrs	r1, r0, #5
 8000938:	4a03      	ldr	r2, [pc, #12]	@ (8000948 <HAL_NVIC_EnableIRQ+0x18>)
 800093a:	f000 001f 	and.w	r0, r0, #31
 800093e:	4083      	lsls	r3, r0
 8000940:	f842 3021 	str.w	r3, [r2, r1, lsl #2]
 8000944:	4770      	bx	lr
 8000946:	bf00      	nop
 8000948:	e000e100 	.word	0xe000e100

0800094c <HAL_SYSTICK_Config>:
 800094c:	3801      	subs	r0, #1
 800094e:	f1b0 7f80 	cmp.w	r0, #16777216	@ 0x1000000
 8000952:	d20b      	bcs.n	800096c <HAL_SYSTICK_Config+0x20>
 8000954:	f04f 23e0 	mov.w	r3, #3758153728	@ 0xe000e000
 8000958:	21f0      	movs	r1, #240	@ 0xf0
 800095a:	4a05      	ldr	r2, [pc, #20]	@ (8000970 <HAL_SYSTICK_Config+0x24>)
 800095c:	6158      	str	r0, [r3, #20]
 800095e:	f882 1023 	strb.w	r1, [r2, #35]	@ 0x23
 8000962:	2000      	movs	r0, #0
 8000964:	2207      	movs	r2, #7
 8000966:	6198      	str	r0, [r3, #24]
 8000968:	611a      	str	r2, [r3, #16]
 800096a:	4770      	bx	lr
 800096c:	2001      	movs	r0, #1
 800096e:	4770      	bx	lr
 8000970:	e000ed00 	.word	0xe000ed00

08000974 <HAL_DMA_Init>:
 8000974:	4603      	mov	r3, r0
 8000976:	b510      	push	{r4, lr}
 8000978:	b330      	cbz	r0, 80009c8 <HAL_DMA_Init+0x54>
 800097a:	6801      	ldr	r1, [r0, #0]
 800097c:	2014      	movs	r0, #20
 800097e:	4a13      	ldr	r2, [pc, #76]	@ (80009cc <HAL_DMA_Init+0x58>)
 8000980:	440a      	add	r2, r1
 8000982:	fbb2 f2f0 	udiv	r2, r2, r0
 8000986:	0092      	lsls	r2, r2, #2
 8000988:	641a      	str	r2, [r3, #64]	@ 0x40
 800098a:	4a11      	ldr	r2, [pc, #68]	@ (80009d0 <HAL_DMA_Init+0x5c>)
 800098c:	63da      	str	r2, [r3, #60]	@ 0x3c
 800098e:	2202      	movs	r2, #2
 8000990:	f883 2021 	strb.w	r2, [r3, #33]	@ 0x21
 8000994:	e9d3 2401 	ldrd	r2, r4, [r3, #4]
 8000998:	4322      	orrs	r2, r4
 800099a:	68dc      	ldr	r4, [r3, #12]
 800099c:	6808      	ldr	r0, [r1, #0]
 800099e:	4322      	orrs	r2, r4
 80009a0:	691c      	ldr	r4, [r3, #16]
 80009a2:	f36f 100d 	bfc	r0, #4, #10
 80009a6:	4322      	orrs	r2, r4
 80009a8:	695c      	ldr	r4, [r3, #20]
 80009aa:	4322      	orrs	r2, r4
 80009ac:	699c      	ldr	r4, [r3, #24]
 80009ae:	4322      	orrs	r2, r4
 80009b0:	69dc      	ldr	r4, [r3, #28]
 80009b2:	4322      	orrs	r2, r4
 80009b4:	4302      	orrs	r2, r0
 80009b6:	600a      	str	r2, [r1, #0]
 80009b8:	2000      	movs	r0, #0
 80009ba:	2201      	movs	r2, #1
 80009bc:	6398      	str	r0, [r3, #56]	@ 0x38
 80009be:	f883 0020 	strb.w	r0, [r3, #32]
 80009c2:	f883 2021 	strb.w	r2, [r3, #33]	@ 0x21
 80009c6:	bd10      	pop	{r4, pc}
 80009c8:	2001      	movs	r0, #1
 80009ca:	e7fc      	b.n	80009c6 <HAL_DMA_Init+0x52>
 80009cc:	bffdfff8 	.word	0xbffdfff8
 80009d0:	40020000 	.word	0x40020000

080009d4 <HAL_DMA_Start_IT>:
 80009d4:	b5f0      	push	{r4, r5, r6, r7, lr}
 80009d6:	f890 4020 	ldrb.w	r4, [r0, #32]
 80009da:	2c01      	cmp	r4, #1
 80009dc:	d034      	beq.n	8000a48 <HAL_DMA_Start_IT+0x74>
 80009de:	2401      	movs	r4, #1
 80009e0:	f880 4020 	strb.w	r4, [r0, #32]
 80009e4:	f890 4021 	ldrb.w	r4, [r0, #33]	@ 0x21
 80009e8:	2c01      	cmp	r4, #1
 80009ea:	b2e5      	uxtb	r5, r4
 80009ec:	f04f 0400 	mov.w	r4, #0
 80009f0:	d128      	bne.n	8000a44 <HAL_DMA_Start_IT+0x70>
 80009f2:	2602      	movs	r6, #2
 80009f4:	f880 6021 	strb.w	r6, [r0, #33]	@ 0x21
 80009f8:	6384      	str	r4, [r0, #56]	@ 0x38
 80009fa:	6804      	ldr	r4, [r0, #0]
 80009fc:	6826      	ldr	r6, [r4, #0]
 80009fe:	f026 0601 	bic.w	r6, r6, #1
 8000a02:	6026      	str	r6, [r4, #0]
 8000a04:	e9d0 670f 	ldrd	r6, r7, [r0, #60]	@ 0x3c
 8000a08:	40bd      	lsls	r5, r7
 8000a0a:	6075      	str	r5, [r6, #4]
 8000a0c:	6063      	str	r3, [r4, #4]
 8000a0e:	6843      	ldr	r3, [r0, #4]
 8000a10:	2b10      	cmp	r3, #16
 8000a12:	6ac3      	ldr	r3, [r0, #44]	@ 0x2c
 8000a14:	bf0b      	itete	eq
 8000a16:	60a2      	streq	r2, [r4, #8]
 8000a18:	60a1      	strne	r1, [r4, #8]
 8000a1a:	60e1      	streq	r1, [r4, #12]
 8000a1c:	60e2      	strne	r2, [r4, #12]
 8000a1e:	b14b      	cbz	r3, 8000a34 <HAL_DMA_Start_IT+0x60>
 8000a20:	6823      	ldr	r3, [r4, #0]
 8000a22:	f043 030e 	orr.w	r3, r3, #14
 8000a26:	2000      	movs	r0, #0
 8000a28:	6023      	str	r3, [r4, #0]
 8000a2a:	6823      	ldr	r3, [r4, #0]
 8000a2c:	f043 0301 	orr.w	r3, r3, #1
 8000a30:	6023      	str	r3, [r4, #0]
 8000a32:	bdf0      	pop	{r4, r5, r6, r7, pc}
 8000a34:	6823      	ldr	r3, [r4, #0]
 8000a36:	f023 0304 	bic.w	r3, r3, #4
 8000a3a:	6023      	str	r3, [r4, #0]
 8000a3c:	6823      	ldr	r3, [r4, #0]
 8000a3e:	f043 030a 	orr.w	r3, r3, #10
 8000a42:	e7f0      	b.n	8000a26 <HAL_DMA_Start_IT+0x52>
 8000a44:	f880 4020 	strb.w	r4, [r0, #32]
 8000a48:	2002      	movs	r0, #2
 8000a4a:	e7f2      	b.n	8000a32 <HAL_DMA_Start_IT+0x5e>

08000a4c <HAL_DMA_Abort>:
 8000a4c:	f890 2021 	ldrb.w	r2, [r0, #33]	@ 0x21
 8000a50:	4603      	mov	r3, r0
 8000a52:	2a02      	cmp	r2, #2
 8000a54:	d006      	beq.n	8000a64 <HAL_DMA_Abort+0x18>
 8000a56:	2204      	movs	r2, #4
 8000a58:	6382      	str	r2, [r0, #56]	@ 0x38
 8000a5a:	2001      	movs	r0, #1
 8000a5c:	2200      	movs	r2, #0
 8000a5e:	f883 2020 	strb.w	r2, [r3, #32]
 8000a62:	4770      	bx	lr
 8000a64:	6802      	ldr	r2, [r0, #0]
 8000a66:	6bc0      	ldr	r0, [r0, #60]	@ 0x3c
 8000a68:	6811      	ldr	r1, [r2, #0]
 8000a6a:	f021 010e 	bic.w	r1, r1, #14
 8000a6e:	6011      	str	r1, [r2, #0]
 8000a70:	6811      	ldr	r1, [r2, #0]
 8000a72:	f021 0101 	bic.w	r1, r1, #1
 8000a76:	6011      	str	r1, [r2, #0]
 8000a78:	2101      	movs	r1, #1
 8000a7a:	6c1a      	ldr	r2, [r3, #64]	@ 0x40
 8000a7c:	fa01 f202 	lsl.w	r2, r1, r2
 8000a80:	6042      	str	r2, [r0, #4]
 8000a82:	2000      	movs	r0, #0
 8000a84:	f883 1021 	strb.w	r1, [r3, #33]	@ 0x21
 8000a88:	e7e8      	b.n	8000a5c <HAL_DMA_Abort+0x10>
	...

08000a8c <HAL_DMA_Abort_IT>:
 8000a8c:	b508      	push	{r3, lr}
 8000a8e:	f890 3021 	ldrb.w	r3, [r0, #33]	@ 0x21
 8000a92:	2b02      	cmp	r3, #2
 8000a94:	d003      	beq.n	8000a9e <HAL_DMA_Abort_IT+0x12>
 8000a96:	2304      	movs	r3, #4
 8000a98:	6383      	str	r3, [r0, #56]	@ 0x38
 8000a9a:	2001      	movs	r0, #1
 8000a9c:	bd08      	pop	{r3, pc}
 8000a9e:	6803      	ldr	r3, [r0, #0]
 8000aa0:	681a      	ldr	r2, [r3, #0]
 8000aa2:	f022 020e 	bic.w	r2, r2, #14
 8000aa6:	601a      	str	r2, [r3, #0]
 8000aa8:	681a      	ldr	r2, [r3, #0]
 8000aaa:	f022 0201 	bic.w	r2, r2, #1
 8000aae:	601a      	str	r2, [r3, #0]
 8000ab0:	4a17      	ldr	r2, [pc, #92]	@ (8000b10 <HAL_DMA_Abort_IT+0x84>)
 8000ab2:	4293      	cmp	r3, r2
 8000ab4:	d01f      	beq.n	8000af6 <HAL_DMA_Abort_IT+0x6a>
 8000ab6:	3214      	adds	r2, #20
 8000ab8:	4293      	cmp	r3, r2
 8000aba:	d01e      	beq.n	8000afa <HAL_DMA_Abort_IT+0x6e>
 8000abc:	3214      	adds	r2, #20
 8000abe:	4293      	cmp	r3, r2
 8000ac0:	d01d      	beq.n	8000afe <HAL_DMA_Abort_IT+0x72>
 8000ac2:	3214      	adds	r2, #20
 8000ac4:	4293      	cmp	r3, r2
 8000ac6:	d01d      	beq.n	8000b04 <HAL_DMA_Abort_IT+0x78>
 8000ac8:	3214      	adds	r2, #20
 8000aca:	4293      	cmp	r3, r2
 8000acc:	d01d      	beq.n	8000b0a <HAL_DMA_Abort_IT+0x7e>
 8000ace:	3214      	adds	r2, #20
 8000ad0:	4293      	cmp	r3, r2
 8000ad2:	bf14      	ite	ne
 8000ad4:	f04f 7380 	movne.w	r3, #16777216	@ 0x1000000
 8000ad8:	f44f 1380 	moveq.w	r3, #1048576	@ 0x100000
 8000adc:	4a0d      	ldr	r2, [pc, #52]	@ (8000b14 <HAL_DMA_Abort_IT+0x88>)
 8000ade:	6053      	str	r3, [r2, #4]
 8000ae0:	2301      	movs	r3, #1
 8000ae2:	f880 3021 	strb.w	r3, [r0, #33]	@ 0x21
 8000ae6:	2300      	movs	r3, #0
 8000ae8:	f880 3020 	strb.w	r3, [r0, #32]
 8000aec:	6b43      	ldr	r3, [r0, #52]	@ 0x34
 8000aee:	b103      	cbz	r3, 8000af2 <HAL_DMA_Abort_IT+0x66>
 8000af0:	4798      	blx	r3
 8000af2:	2000      	movs	r0, #0
 8000af4:	e7d2      	b.n	8000a9c <HAL_DMA_Abort_IT+0x10>
 8000af6:	2301      	movs	r3, #1
 8000af8:	e7f0      	b.n	8000adc <HAL_DMA_Abort_IT+0x50>
 8000afa:	2310      	movs	r3, #16
 8000afc:	e7ee      	b.n	8000adc <HAL_DMA_Abort_IT+0x50>
 8000afe:	f44f 7380 	mov.w	r3, #256	@ 0x100
 8000b02:	e7eb      	b.n	8000adc <HAL_DMA_Abort_IT+0x50>
 8000b04:	f44f 5380 	mov.w	r3, #4096	@ 0x1000
 8000b08:	e7e8      	b.n	8000adc <HAL_DMA_Abort_IT+0x50>
 8000b0a:	f44f 3380 	mov.w	r3, #65536	@ 0x10000
 8000b0e:	e7e5      	b.n	8000adc <HAL_DMA_Abort_IT+0x50>
 8000b10:	40020008 	.word	0x40020008
 8000b14:	40020000 	.word	0x40020000

08000b18 <HAL_DMA_IRQHandler>:
 8000b18:	b470      	push	{r4, r5, r6}
 8000b1a:	2504      	movs	r5, #4
 8000b1c:	6bc6      	ldr	r6, [r0, #60]	@ 0x3c
 8000b1e:	6c02      	ldr	r2, [r0, #64]	@ 0x40
 8000b20:	6834      	ldr	r4, [r6, #0]
 8000b22:	6803      	ldr	r3, [r0, #0]
 8000b24:	4095      	lsls	r5, r2
 8000b26:	4225      	tst	r5, r4
 8000b28:	6819      	ldr	r1, [r3, #0]
 8000b2a:	d032      	beq.n	8000b92 <HAL_DMA_IRQHandler+0x7a>
 8000b2c:	074d      	lsls	r5, r1, #29
 8000b2e:	d530      	bpl.n	8000b92 <HAL_DMA_IRQHandler+0x7a>
 8000b30:	681a      	ldr	r2, [r3, #0]
 8000b32:	0696      	lsls	r6, r2, #26
 8000b34:	bf5e      	ittt	pl
 8000b36:	681a      	ldrpl	r2, [r3, #0]
 8000b38:	f022 0204 	bicpl.w	r2, r2, #4
 8000b3c:	601a      	strpl	r2, [r3, #0]
 8000b3e:	4a3e      	ldr	r2, [pc, #248]	@ (8000c38 <HAL_DMA_IRQHandler+0x120>)
 8000b40:	4293      	cmp	r3, r2
 8000b42:	d019      	beq.n	8000b78 <HAL_DMA_IRQHandler+0x60>
 8000b44:	3214      	adds	r2, #20
 8000b46:	4293      	cmp	r3, r2
 8000b48:	d018      	beq.n	8000b7c <HAL_DMA_IRQHandler+0x64>
 8000b4a:	3214      	adds	r2, #20
 8000b4c:	4293      	cmp	r3, r2
 8000b4e:	d017      	beq.n	8000b80 <HAL_DMA_IRQHandler+0x68>
 8000b50:	3214      	adds	r2, #20
 8000b52:	4293      	cmp	r3, r2
 8000b54:	d017      	beq.n	8000b86 <HAL_DMA_IRQHandler+0x6e>
 8000b56:	3214      	adds	r2, #20
 8000b58:	4293      	cmp	r3, r2
 8000b5a:	d017      	beq.n	8000b8c <HAL_DMA_IRQHandler+0x74>
 8000b5c:	3214      	adds	r2, #20
 8000b5e:	4293      	cmp	r3, r2
 8000b60:	bf14      	ite	ne
 8000b62:	f04f 6380 	movne.w	r3, #67108864	@ 0x4000000
 8000b66:	f44f 0380 	moveq.w	r3, #4194304	@ 0x400000
 8000b6a:	4a34      	ldr	r2, [pc, #208]	@ (8000c3c <HAL_DMA_IRQHandler+0x124>)
 8000b6c:	6053      	str	r3, [r2, #4]
 8000b6e:	6ac3      	ldr	r3, [r0, #44]	@ 0x2c
 8000b70:	2b00      	cmp	r3, #0
 8000b72:	d05e      	beq.n	8000c32 <HAL_DMA_IRQHandler+0x11a>
 8000b74:	bc70      	pop	{r4, r5, r6}
 8000b76:	4718      	bx	r3
 8000b78:	2304      	movs	r3, #4
 8000b7a:	e7f6      	b.n	8000b6a <HAL_DMA_IRQHandler+0x52>
 8000b7c:	2340      	movs	r3, #64	@ 0x40
 8000b7e:	e7f4      	b.n	8000b6a <HAL_DMA_IRQHandler+0x52>
 8000b80:	f44f 6380 	mov.w	r3, #1024	@ 0x400
 8000b84:	e7f1      	b.n	8000b6a <HAL_DMA_IRQHandler+0x52>
 8000b86:	f44f 4380 	mov.w	r3, #16384	@ 0x4000
 8000b8a:	e7ee      	b.n	8000b6a <HAL_DMA_IRQHandler+0x52>
 8000b8c:	f44f 2380 	mov.w	r3, #262144	@ 0x40000
 8000b90:	e7eb      	b.n	8000b6a <HAL_DMA_IRQHandler+0x52>
 8000b92:	2502      	movs	r5, #2
 8000b94:	4095      	lsls	r5, r2
 8000b96:	4225      	tst	r5, r4
 8000b98:	d035      	beq.n	8000c06 <HAL_DMA_IRQHandler+0xee>
 8000b9a:	078d      	lsls	r5, r1, #30
 8000b9c:	d533      	bpl.n	8000c06 <HAL_DMA_IRQHandler+0xee>
 8000b9e:	681a      	ldr	r2, [r3, #0]
 8000ba0:	0694      	lsls	r4, r2, #26
 8000ba2:	d406      	bmi.n	8000bb2 <HAL_DMA_IRQHandler+0x9a>
 8000ba4:	681a      	ldr	r2, [r3, #0]
 8000ba6:	f022 020a 	bic.w	r2, r2, #10
 8000baa:	601a      	str	r2, [r3, #0]
 8000bac:	2201      	movs	r2, #1
 8000bae:	f880 2021 	strb.w	r2, [r0, #33]	@ 0x21
 8000bb2:	4a21      	ldr	r2, [pc, #132]	@ (8000c38 <HAL_DMA_IRQHandler+0x120>)
 8000bb4:	4293      	cmp	r3, r2
 8000bb6:	d019      	beq.n	8000bec <HAL_DMA_IRQHandler+0xd4>
 8000bb8:	3214      	adds	r2, #20
 8000bba:	4293      	cmp	r3, r2
 8000bbc:	d018      	beq.n	8000bf0 <HAL_DMA_IRQHandler+0xd8>
 8000bbe:	3214      	adds	r2, #20
 8000bc0:	4293      	cmp	r3, r2
 8000bc2:	d017      	beq.n	8000bf4 <HAL_DMA_IRQHandler+0xdc>
 8000bc4:	3214      	adds	r2, #20
 8000bc6:	4293      	cmp	r3, r2
 8000bc8:	d017      	beq.n	8000bfa <HAL_DMA_IRQHandler+0xe2>
 8000bca:	3214      	adds	r2, #20
 8000bcc:	4293      	cmp	r3, r2
 8000bce:	d017      	beq.n	8000c00 <HAL_DMA_IRQHandler+0xe8>
 8000bd0:	3214      	adds	r2, #20
 8000bd2:	4293      	cmp	r3, r2
 8000bd4:	bf14      	ite	ne
 8000bd6:	f04f 7300 	movne.w	r3, #33554432	@ 0x2000000
 8000bda:	f44f 1300 	moveq.w	r3, #2097152	@ 0x200000
 8000bde:	4a17      	ldr	r2, [pc, #92]	@ (8000c3c <HAL_DMA_IRQHandler+0x124>)
 8000be0:	6053      	str	r3, [r2, #4]
 8000be2:	2300      	movs	r3, #0
 8000be4:	f880 3020 	strb.w	r3, [r0, #32]
 8000be8:	6a83      	ldr	r3, [r0, #40]	@ 0x28
 8000bea:	e7c1      	b.n	8000b70 <HAL_DMA_IRQHandler+0x58>
 8000bec:	2302      	movs	r3, #2
 8000bee:	e7f6      	b.n	8000bde <HAL_DMA_IRQHandler+0xc6>
 8000bf0:	2320      	movs	r3, #32
 8000bf2:	e7f4      	b.n	8000bde <HAL_DMA_IRQHandler+0xc6>
 8000bf4:	f44f 7300 	mov.w	r3, #512	@ 0x200
 8000bf8:	e7f1      	b.n	8000bde <HAL_DMA_IRQHandler+0xc6>
 8000bfa:	f44f 5300 	mov.w	r3, #8192	@ 0x2000
 8000bfe:	e7ee      	b.n	8000bde <HAL_DMA_IRQHandler+0xc6>
 8000c00:	f44f 3300 	mov.w	r3, #131072	@ 0x20000
 8000c04:	e7eb      	b.n	8000bde <HAL_DMA_IRQHandler+0xc6>
 8000c06:	2508      	movs	r5, #8
 8000c08:	4095      	lsls	r5, r2
 8000c0a:	4225      	tst	r5, r4
 8000c0c:	d011      	beq.n	8000c32 <HAL_DMA_IRQHandler+0x11a>
 8000c0e:	0709      	lsls	r1, r1, #28
 8000c10:	d50f      	bpl.n	8000c32 <HAL_DMA_IRQHandler+0x11a>
 8000c12:	6819      	ldr	r1, [r3, #0]
 8000c14:	f021 010e 	bic.w	r1, r1, #14
 8000c18:	6019      	str	r1, [r3, #0]
 8000c1a:	2301      	movs	r3, #1
 8000c1c:	fa03 f202 	lsl.w	r2, r3, r2
 8000c20:	6072      	str	r2, [r6, #4]
 8000c22:	6383      	str	r3, [r0, #56]	@ 0x38
 8000c24:	f880 3021 	strb.w	r3, [r0, #33]	@ 0x21
 8000c28:	2300      	movs	r3, #0
 8000c2a:	f880 3020 	strb.w	r3, [r0, #32]
 8000c2e:	6b03      	ldr	r3, [r0, #48]	@ 0x30
 8000c30:	e79e      	b.n	8000b70 <HAL_DMA_IRQHandler+0x58>
 8000c32:	bc70      	pop	{r4, r5, r6}
 8000c34:	4770      	bx	lr
 8000c36:	bf00      	nop
 8000c38:	40020008 	.word	0x40020008
 8000c3c:	40020000 	.word	0x40020000

08000c40 <HAL_DMA_GetState>:
 8000c40:	f890 0021 	ldrb.w	r0, [r0, #33]	@ 0x21
 8000c44:	4770      	bx	lr
	...

08000c48 <HAL_GPIO_Init>:
 8000c48:	e92d 4ff7 	stmdb	sp!, {r0, r1, r2, r4, r5, r6, r7, r8, r9, sl, fp, lr}
 8000c4c:	2400      	movs	r4, #0
 8000c4e:	f04f 0e0f 	mov.w	lr, #15
 8000c52:	4626      	mov	r6, r4
 8000c54:	f8df c184 	ldr.w	ip, [pc, #388]	@ 8000ddc <HAL_GPIO_Init+0x194>
 8000c58:	4b61      	ldr	r3, [pc, #388]	@ (8000de0 <HAL_GPIO_Init+0x198>)
 8000c5a:	f100 0804 	add.w	r8, r0, #4
 8000c5e:	680a      	ldr	r2, [r1, #0]
 8000c60:	fa32 f506 	lsrs.w	r5, r2, r6
 8000c64:	d102      	bne.n	8000c6c <HAL_GPIO_Init+0x24>
 8000c66:	b003      	add	sp, #12
 8000c68:	e8bd 8ff0 	ldmia.w	sp!, {r4, r5, r6, r7, r8, r9, sl, fp, pc}
 8000c6c:	2501      	movs	r5, #1
 8000c6e:	fa05 f706 	lsl.w	r7, r5, r6
 8000c72:	ea02 0507 	and.w	r5, r2, r7
 8000c76:	ea37 0202 	bics.w	r2, r7, r2
 8000c7a:	d176      	bne.n	8000d6a <HAL_GPIO_Init+0x122>
 8000c7c:	684a      	ldr	r2, [r1, #4]
 8000c7e:	2a03      	cmp	r2, #3
 8000c80:	d807      	bhi.n	8000c92 <HAL_GPIO_Init+0x4a>
 8000c82:	3a01      	subs	r2, #1
 8000c84:	2a02      	cmp	r2, #2
 8000c86:	f200 8083 	bhi.w	8000d90 <HAL_GPIO_Init+0x148>
 8000c8a:	e8df f002 	tbb	[pc, r2]
 8000c8e:	9691      	.short	0x9691
 8000c90:	9c          	.byte	0x9c
 8000c91:	00          	.byte	0x00
 8000c92:	2a12      	cmp	r2, #18
 8000c94:	f000 8094 	beq.w	8000dc0 <HAL_GPIO_Init+0x178>
 8000c98:	d869      	bhi.n	8000d6e <HAL_GPIO_Init+0x126>
 8000c9a:	2a11      	cmp	r2, #17
 8000c9c:	f000 808a 	beq.w	8000db4 <HAL_GPIO_Init+0x16c>
 8000ca0:	2dff      	cmp	r5, #255	@ 0xff
 8000ca2:	bf94      	ite	ls
 8000ca4:	4681      	movls	r9, r0
 8000ca6:	46c1      	movhi	r9, r8
 8000ca8:	ea4f 0286 	mov.w	r2, r6, lsl #2
 8000cac:	f8d9 7000 	ldr.w	r7, [r9]
 8000cb0:	bf88      	it	hi
 8000cb2:	3a20      	subhi	r2, #32
 8000cb4:	fa0e fa02 	lsl.w	sl, lr, r2
 8000cb8:	ea27 070a 	bic.w	r7, r7, sl
 8000cbc:	fa04 f202 	lsl.w	r2, r4, r2
 8000cc0:	4317      	orrs	r7, r2
 8000cc2:	f8c9 7000 	str.w	r7, [r9]
 8000cc6:	f8d1 9004 	ldr.w	r9, [r1, #4]
 8000cca:	f019 5f80 	tst.w	r9, #268435456	@ 0x10000000
 8000cce:	d04c      	beq.n	8000d6a <HAL_GPIO_Init+0x122>
 8000cd0:	f8dc 2018 	ldr.w	r2, [ip, #24]
 8000cd4:	f026 0703 	bic.w	r7, r6, #3
 8000cd8:	f042 0201 	orr.w	r2, r2, #1
 8000cdc:	f8cc 2018 	str.w	r2, [ip, #24]
 8000ce0:	f8dc 2018 	ldr.w	r2, [ip, #24]
 8000ce4:	f107 4780 	add.w	r7, r7, #1073741824	@ 0x40000000
 8000ce8:	f002 0201 	and.w	r2, r2, #1
 8000cec:	9201      	str	r2, [sp, #4]
 8000cee:	f507 3780 	add.w	r7, r7, #65536	@ 0x10000
 8000cf2:	f006 0a03 	and.w	sl, r6, #3
 8000cf6:	9a01      	ldr	r2, [sp, #4]
 8000cf8:	ea4f 0a8a 	mov.w	sl, sl, lsl #2
 8000cfc:	68ba      	ldr	r2, [r7, #8]
 8000cfe:	fa0e fb0a 	lsl.w	fp, lr, sl
 8000d02:	ea22 0b0b 	bic.w	fp, r2, fp
 8000d06:	4a37      	ldr	r2, [pc, #220]	@ (8000de4 <HAL_GPIO_Init+0x19c>)
 8000d08:	4290      	cmp	r0, r2
 8000d0a:	d060      	beq.n	8000dce <HAL_GPIO_Init+0x186>
 8000d0c:	f502 6280 	add.w	r2, r2, #1024	@ 0x400
 8000d10:	4290      	cmp	r0, r2
 8000d12:	d05e      	beq.n	8000dd2 <HAL_GPIO_Init+0x18a>
 8000d14:	f502 6280 	add.w	r2, r2, #1024	@ 0x400
 8000d18:	4290      	cmp	r0, r2
 8000d1a:	d05c      	beq.n	8000dd6 <HAL_GPIO_Init+0x18e>
 8000d1c:	f502 6280 	add.w	r2, r2, #1024	@ 0x400
 8000d20:	4290      	cmp	r0, r2
 8000d22:	bf14      	ite	ne
 8000d24:	2204      	movne	r2, #4
 8000d26:	2203      	moveq	r2, #3
 8000d28:	fa02 f20a 	lsl.w	r2, r2, sl
 8000d2c:	ea42 020b 	orr.w	r2, r2, fp
 8000d30:	60ba      	str	r2, [r7, #8]
 8000d32:	689a      	ldr	r2, [r3, #8]
 8000d34:	f419 1f80 	tst.w	r9, #1048576	@ 0x100000
 8000d38:	bf14      	ite	ne
 8000d3a:	432a      	orrne	r2, r5
 8000d3c:	43aa      	biceq	r2, r5
 8000d3e:	609a      	str	r2, [r3, #8]
 8000d40:	68da      	ldr	r2, [r3, #12]
 8000d42:	f419 1f00 	tst.w	r9, #2097152	@ 0x200000
 8000d46:	bf14      	ite	ne
 8000d48:	432a      	orrne	r2, r5
 8000d4a:	43aa      	biceq	r2, r5
 8000d4c:	60da      	str	r2, [r3, #12]
 8000d4e:	685a      	ldr	r2, [r3, #4]
 8000d50:	f419 3f00 	tst.w	r9, #131072	@ 0x20000
 8000d54:	bf14      	ite	ne
 8000d56:	432a      	orrne	r2, r5
 8000d58:	43aa      	biceq	r2, r5
 8000d5a:	605a      	str	r2, [r3, #4]
 8000d5c:	681a      	ldr	r2, [r3, #0]
 8000d5e:	f419 3f80 	tst.w	r9, #65536	@ 0x10000
 8000d62:	bf14      	ite	ne
 8000d64:	432a      	orrne	r2, r5
 8000d66:	43aa      	biceq	r2, r5
 8000d68:	601a      	str	r2, [r3, #0]
 8000d6a:	3601      	adds	r6, #1
 8000d6c:	e777      	b.n	8000c5e <HAL_GPIO_Init+0x16>
 8000d6e:	f8df 9078 	ldr.w	r9, [pc, #120]	@ 8000de8 <HAL_GPIO_Init+0x1a0>
 8000d72:	454a      	cmp	r2, r9
 8000d74:	d00c      	beq.n	8000d90 <HAL_GPIO_Init+0x148>
 8000d76:	d814      	bhi.n	8000da2 <HAL_GPIO_Init+0x15a>
 8000d78:	f5a9 1980 	sub.w	r9, r9, #1048576	@ 0x100000
 8000d7c:	454a      	cmp	r2, r9
 8000d7e:	d007      	beq.n	8000d90 <HAL_GPIO_Init+0x148>
 8000d80:	f509 2970 	add.w	r9, r9, #983040	@ 0xf0000
 8000d84:	454a      	cmp	r2, r9
 8000d86:	d003      	beq.n	8000d90 <HAL_GPIO_Init+0x148>
 8000d88:	f5a9 1980 	sub.w	r9, r9, #1048576	@ 0x100000
 8000d8c:	454a      	cmp	r2, r9
 8000d8e:	d187      	bne.n	8000ca0 <HAL_GPIO_Init+0x58>
 8000d90:	688a      	ldr	r2, [r1, #8]
 8000d92:	b1d2      	cbz	r2, 8000dca <HAL_GPIO_Init+0x182>
 8000d94:	2a01      	cmp	r2, #1
 8000d96:	f04f 0408 	mov.w	r4, #8
 8000d9a:	bf0c      	ite	eq
 8000d9c:	6107      	streq	r7, [r0, #16]
 8000d9e:	6147      	strne	r7, [r0, #20]
 8000da0:	e77e      	b.n	8000ca0 <HAL_GPIO_Init+0x58>
 8000da2:	f8df 9048 	ldr.w	r9, [pc, #72]	@ 8000dec <HAL_GPIO_Init+0x1a4>
 8000da6:	454a      	cmp	r2, r9
 8000da8:	d0f2      	beq.n	8000d90 <HAL_GPIO_Init+0x148>
 8000daa:	f509 3980 	add.w	r9, r9, #65536	@ 0x10000
 8000dae:	e7ed      	b.n	8000d8c <HAL_GPIO_Init+0x144>
 8000db0:	68cc      	ldr	r4, [r1, #12]
 8000db2:	e775      	b.n	8000ca0 <HAL_GPIO_Init+0x58>
 8000db4:	68cc      	ldr	r4, [r1, #12]
 8000db6:	3404      	adds	r4, #4
 8000db8:	e772      	b.n	8000ca0 <HAL_GPIO_Init+0x58>
 8000dba:	68cc      	ldr	r4, [r1, #12]
 8000dbc:	3408      	adds	r4, #8
 8000dbe:	e76f      	b.n	8000ca0 <HAL_GPIO_Init+0x58>
 8000dc0:	68cc      	ldr	r4, [r1, #12]
 8000dc2:	340c      	adds	r4, #12
 8000dc4:	e76c      	b.n	8000ca0 <HAL_GPIO_Init+0x58>
 8000dc6:	2400      	movs	r4, #0
 8000dc8:	e76a      	b.n	8000ca0 <HAL_GPIO_Init+0x58>
 8000dca:	2404      	movs	r4, #4
 8000dcc:	e768      	b.n	8000ca0 <HAL_GPIO_Init+0x58>
 8000dce:	2200      	movs	r2, #0
 8000dd0:	e7aa      	b.n	8000d28 <HAL_GPIO_Init+0xe0>
 8000dd2:	2201      	movs	r2, #1
 8000dd4:	e7a8      	b.n	8000d28 <HAL_GPIO_Init+0xe0>
 8000dd6:	2202      	movs	r2, #2
 8000dd8:	e7a6      	b.n	8000d28 <HAL_GPIO_Init+0xe0>
 8000dda:	bf00      	nop
 8000ddc:	40021000 	.word	0x40021000
 8000de0:	40010400 	.word	0x40010400
 8000de4:	40010800 	.word	0x40010800
 8000de8:	10220000 	.word	0x10220000
 8000dec:	10310000 	.word	0x10310000

08000df0 <HAL_GPIO_WritePin>:
 8000df0:	b10a      	cbz	r2, 8000df6 <HAL_GPIO_WritePin+0x6>
 8000df2:	6101      	str	r1, [r0, #16]
 8000df4:	4770      	bx	lr
 8000df6:	0409      	lsls	r1, r1, #16
 8000df8:	e7fb      	b.n	8000df2 <HAL_GPIO_WritePin+0x2>

08000dfa <HAL_GPIO_TogglePin>:
 8000dfa:	68c3      	ldr	r3, [r0, #12]
 8000dfc:	ea01 0203 	and.w	r2, r1, r3
 8000e00:	ea21 0103 	bic.w	r1, r1, r3
 8000e04:	ea41 4102 	orr.w	r1, r1, r2, lsl #16
 8000e08:	6101      	str	r1, [r0, #16]
 8000e0a:	4770      	bx	lr

08000e0c <HAL_GPIO_EXTI_Callback>:
 8000e0c:	4770      	bx	lr
	...

08000e10 <HAL_GPIO_EXTI_IRQHandler>:
 8000e10:	4a04      	ldr	r2, [pc, #16]	@ (8000e24 <HAL_GPIO_EXTI_IRQHandler+0x14>)
 8000e12:	b508      	push	{r3, lr}
 8000e14:	6951      	ldr	r1, [r2, #20]
 8000e16:	4201      	tst	r1, r0
 8000e18:	d002      	beq.n	8000e20 <HAL_GPIO_EXTI_IRQHandler+0x10>
 8000e1a:	6150      	str	r0, [r2, #20]
 8000e1c:	f7ff fff6 	bl	8000e0c <HAL_GPIO_EXTI_Callback>
 8000e20:	bd08      	pop	{r3, pc}
 8000e22:	bf00      	nop
 8000e24:	40010400 	.word	0x40010400

08000e28 <HAL_I2C_Init>:
 8000e28:	b570      	push	{r4, r5, r6, lr}
 8000e2a:	4604      	mov	r4, r0
 8000e2c:	b908      	cbnz	r0, 8000e32 <HAL_I2C_Init+0xa>
 8000e2e:	2001      	movs	r0, #1
 8000e30:	bd70      	pop	{r4, r5, r6, pc}
 8000e32:	f890 303d 	ldrb.w	r3, [r0, #61]	@ 0x3d
 8000e36:	f003 02ff 	and.w	r2, r3, #255	@ 0xff
 8000e3a:	b91b      	cbnz	r3, 8000e44 <HAL_I2C_Init+0x1c>
 8000e3c:	f880 203c 	strb.w	r2, [r0, #60]	@ 0x3c
 8000e40:	f7ff fb48 	bl	80004d4 <HAL_I2C_MspInit>
 8000e44:	2324      	movs	r3, #36	@ 0x24
 8000e46:	f884 303d 	strb.w	r3, [r4, #61]	@ 0x3d
 8000e4a:	6823      	ldr	r3, [r4, #0]
 8000e4c:	681a      	ldr	r2, [r3, #0]
 8000e4e:	f022 0201 	bic.w	r2, r2, #1
 8000e52:	601a      	str	r2, [r3, #0]
 8000e54:	681a      	ldr	r2, [r3, #0]
 8000e56:	f442 4200 	orr.w	r2, r2, #32768	@ 0x8000
 8000e5a:	601a      	str	r2, [r3, #0]
 8000e5c:	681a      	ldr	r2, [r3, #0]
 8000e5e:	f422 4200 	bic.w	r2, r2, #32768	@ 0x8000
 8000e62:	601a      	str	r2, [r3, #0]
 8000e64:	f001 f948 	bl	80020f8 <HAL_RCC_GetPCLK1Freq>
 8000e68:	4b3f      	ldr	r3, [pc, #252]	@ (8000f68 <HAL_I2C_Init+0x140>)
 8000e6a:	6865      	ldr	r5, [r4, #4]
 8000e6c:	429d      	cmp	r5, r3
 8000e6e:	bf94      	ite	ls
 8000e70:	4b3e      	ldrls	r3, [pc, #248]	@ (8000f6c <HAL_I2C_Init+0x144>)
 8000e72:	4b3f      	ldrhi	r3, [pc, #252]	@ (8000f70 <HAL_I2C_Init+0x148>)
 8000e74:	4298      	cmp	r0, r3
 8000e76:	bf8c      	ite	hi
 8000e78:	2300      	movhi	r3, #0
 8000e7a:	2301      	movls	r3, #1
 8000e7c:	2b00      	cmp	r3, #0
 8000e7e:	d1d6      	bne.n	8000e2e <HAL_I2C_Init+0x6>
 8000e80:	4e39      	ldr	r6, [pc, #228]	@ (8000f68 <HAL_I2C_Init+0x140>)
 8000e82:	4b3c      	ldr	r3, [pc, #240]	@ (8000f74 <HAL_I2C_Init+0x14c>)
 8000e84:	42b5      	cmp	r5, r6
 8000e86:	fbb0 f3f3 	udiv	r3, r0, r3
 8000e8a:	bf88      	it	hi
 8000e8c:	f44f 7696 	movhi.w	r6, #300	@ 0x12c
 8000e90:	6822      	ldr	r2, [r4, #0]
 8000e92:	6851      	ldr	r1, [r2, #4]
 8000e94:	f021 013f 	bic.w	r1, r1, #63	@ 0x3f
 8000e98:	ea41 0103 	orr.w	r1, r1, r3
 8000e9c:	bf82      	ittt	hi
 8000e9e:	4373      	mulhi	r3, r6
 8000ea0:	f44f 767a 	movhi.w	r6, #1000	@ 0x3e8
 8000ea4:	fbb3 f3f6 	udivhi	r3, r3, r6
 8000ea8:	6051      	str	r1, [r2, #4]
 8000eaa:	6a11      	ldr	r1, [r2, #32]
 8000eac:	3301      	adds	r3, #1
 8000eae:	f021 013f 	bic.w	r1, r1, #63	@ 0x3f
 8000eb2:	430b      	orrs	r3, r1
 8000eb4:	6213      	str	r3, [r2, #32]
 8000eb6:	69d1      	ldr	r1, [r2, #28]
 8000eb8:	1e43      	subs	r3, r0, #1
 8000eba:	482b      	ldr	r0, [pc, #172]	@ (8000f68 <HAL_I2C_Init+0x140>)
 8000ebc:	f421 414f 	bic.w	r1, r1, #52992	@ 0xcf00
 8000ec0:	4285      	cmp	r5, r0
 8000ec2:	f021 01ff 	bic.w	r1, r1, #255	@ 0xff
 8000ec6:	d832      	bhi.n	8000f2e <HAL_I2C_Init+0x106>
 8000ec8:	006d      	lsls	r5, r5, #1
 8000eca:	fbb3 f3f5 	udiv	r3, r3, r5
 8000ece:	f640 70fc 	movw	r0, #4092	@ 0xffc
 8000ed2:	3301      	adds	r3, #1
 8000ed4:	4203      	tst	r3, r0
 8000ed6:	d042      	beq.n	8000f5e <HAL_I2C_Init+0x136>
 8000ed8:	f3c3 030b 	ubfx	r3, r3, #0, #12
 8000edc:	4319      	orrs	r1, r3
 8000ede:	61d1      	str	r1, [r2, #28]
 8000ee0:	6811      	ldr	r1, [r2, #0]
 8000ee2:	e9d4 3007 	ldrd	r3, r0, [r4, #28]
 8000ee6:	f021 01c0 	bic.w	r1, r1, #192	@ 0xc0
 8000eea:	4303      	orrs	r3, r0
 8000eec:	430b      	orrs	r3, r1
 8000eee:	6013      	str	r3, [r2, #0]
 8000ef0:	6891      	ldr	r1, [r2, #8]
 8000ef2:	e9d4 0303 	ldrd	r0, r3, [r4, #12]
 8000ef6:	f421 4103 	bic.w	r1, r1, #33536	@ 0x8300
 8000efa:	4303      	orrs	r3, r0
 8000efc:	f021 01ff 	bic.w	r1, r1, #255	@ 0xff
 8000f00:	430b      	orrs	r3, r1
 8000f02:	6093      	str	r3, [r2, #8]
 8000f04:	68d1      	ldr	r1, [r2, #12]
 8000f06:	e9d4 3005 	ldrd	r3, r0, [r4, #20]
 8000f0a:	f021 01ff 	bic.w	r1, r1, #255	@ 0xff
 8000f0e:	4303      	orrs	r3, r0
 8000f10:	430b      	orrs	r3, r1
 8000f12:	60d3      	str	r3, [r2, #12]
 8000f14:	6813      	ldr	r3, [r2, #0]
 8000f16:	2000      	movs	r0, #0
 8000f18:	f043 0301 	orr.w	r3, r3, #1
 8000f1c:	6013      	str	r3, [r2, #0]
 8000f1e:	2320      	movs	r3, #32
 8000f20:	6420      	str	r0, [r4, #64]	@ 0x40
 8000f22:	f884 303d 	strb.w	r3, [r4, #61]	@ 0x3d
 8000f26:	6320      	str	r0, [r4, #48]	@ 0x30
 8000f28:	f884 003e 	strb.w	r0, [r4, #62]	@ 0x3e
 8000f2c:	e780      	b.n	8000e30 <HAL_I2C_Init+0x8>
 8000f2e:	68a0      	ldr	r0, [r4, #8]
 8000f30:	b950      	cbnz	r0, 8000f48 <HAL_I2C_Init+0x120>
 8000f32:	eb05 0545 	add.w	r5, r5, r5, lsl #1
 8000f36:	fbb3 f3f5 	udiv	r3, r3, r5
 8000f3a:	3301      	adds	r3, #1
 8000f3c:	f3c3 030b 	ubfx	r3, r3, #0, #12
 8000f40:	b17b      	cbz	r3, 8000f62 <HAL_I2C_Init+0x13a>
 8000f42:	f443 4300 	orr.w	r3, r3, #32768	@ 0x8000
 8000f46:	e7c9      	b.n	8000edc <HAL_I2C_Init+0xb4>
 8000f48:	2019      	movs	r0, #25
 8000f4a:	4368      	muls	r0, r5
 8000f4c:	fbb3 f3f0 	udiv	r3, r3, r0
 8000f50:	3301      	adds	r3, #1
 8000f52:	f3c3 030b 	ubfx	r3, r3, #0, #12
 8000f56:	b123      	cbz	r3, 8000f62 <HAL_I2C_Init+0x13a>
 8000f58:	f443 4340 	orr.w	r3, r3, #49152	@ 0xc000
 8000f5c:	e7be      	b.n	8000edc <HAL_I2C_Init+0xb4>
 8000f5e:	2304      	movs	r3, #4
 8000f60:	e7bc      	b.n	8000edc <HAL_I2C_Init+0xb4>
 8000f62:	2301      	movs	r3, #1
 8000f64:	e7ba      	b.n	8000edc <HAL_I2C_Init+0xb4>
 8000f66:	bf00      	nop
 8000f68:	000186a0 	.word	0x000186a0
 8000f6c:	001e847f 	.word	0x001e847f
 8000f70:	003d08ff 	.word	0x003d08ff
 8000f74:	000f4240 	.word	0x000f4240

08000f78 <HAL_I2C_MasterTxCpltCallback>:
 8000f78:	4770      	bx	lr

08000f7a <HAL_I2C_MasterRxCpltCallback>:
 8000f7a:	4770      	bx	lr

08000f7c <HAL_I2C_SlaveTxCpltCallback>:
 8000f7c:	4770      	bx	lr

08000f7e <HAL_I2C_SlaveRxCpltCallback>:
 8000f7e:	4770      	bx	lr

08000f80 <HAL_I2C_AddrCallback>:
 8000f80:	4770      	bx	lr

08000f82 <HAL_I2C_ListenCpltCallback>:
 8000f82:	4770      	bx	lr

08000f84 <HAL_I2C_MemTxCpltCallback>:
 8000f84:	4770      	bx	lr

08000f86 <I2C_MemoryTransmit_TXE_BTF>:
 8000f86:	f890 203d 	ldrb.w	r2, [r0, #61]	@ 0x3d
 8000f8a:	b508      	push	{r3, lr}
 8000f8c:	6d03      	ldr	r3, [r0, #80]	@ 0x50
 8000f8e:	b2d2      	uxtb	r2, r2
 8000f90:	b983      	cbnz	r3, 8000fb4 <I2C_MemoryTransmit_TXE_BTF+0x2e>
 8000f92:	6cc3      	ldr	r3, [r0, #76]	@ 0x4c
 8000f94:	6802      	ldr	r2, [r0, #0]
 8000f96:	2b01      	cmp	r3, #1
 8000f98:	6c83      	ldr	r3, [r0, #72]	@ 0x48
 8000f9a:	d105      	bne.n	8000fa8 <I2C_MemoryTransmit_TXE_BTF+0x22>
 8000f9c:	b2db      	uxtb	r3, r3
 8000f9e:	6113      	str	r3, [r2, #16]
 8000fa0:	6d03      	ldr	r3, [r0, #80]	@ 0x50
 8000fa2:	3302      	adds	r3, #2
 8000fa4:	6503      	str	r3, [r0, #80]	@ 0x50
 8000fa6:	bd08      	pop	{r3, pc}
 8000fa8:	f3c3 2307 	ubfx	r3, r3, #8, #8
 8000fac:	6113      	str	r3, [r2, #16]
 8000fae:	6d03      	ldr	r3, [r0, #80]	@ 0x50
 8000fb0:	3301      	adds	r3, #1
 8000fb2:	e7f7      	b.n	8000fa4 <I2C_MemoryTransmit_TXE_BTF+0x1e>
 8000fb4:	6d03      	ldr	r3, [r0, #80]	@ 0x50
 8000fb6:	2b01      	cmp	r3, #1
 8000fb8:	d103      	bne.n	8000fc2 <I2C_MemoryTransmit_TXE_BTF+0x3c>
 8000fba:	6c83      	ldr	r3, [r0, #72]	@ 0x48
 8000fbc:	6802      	ldr	r2, [r0, #0]
 8000fbe:	b2db      	uxtb	r3, r3
 8000fc0:	e7f4      	b.n	8000fac <I2C_MemoryTransmit_TXE_BTF+0x26>
 8000fc2:	6d03      	ldr	r3, [r0, #80]	@ 0x50
 8000fc4:	2b02      	cmp	r3, #2
 8000fc6:	d12f      	bne.n	8001028 <I2C_MemoryTransmit_TXE_BTF+0xa2>
 8000fc8:	2a22      	cmp	r2, #34	@ 0x22
 8000fca:	d105      	bne.n	8000fd8 <I2C_MemoryTransmit_TXE_BTF+0x52>
 8000fcc:	6802      	ldr	r2, [r0, #0]
 8000fce:	6813      	ldr	r3, [r2, #0]
 8000fd0:	f443 7380 	orr.w	r3, r3, #256	@ 0x100
 8000fd4:	6013      	str	r3, [r2, #0]
 8000fd6:	e7ea      	b.n	8000fae <I2C_MemoryTransmit_TXE_BTF+0x28>
 8000fd8:	8d43      	ldrh	r3, [r0, #42]	@ 0x2a
 8000fda:	b29b      	uxth	r3, r3
 8000fdc:	b163      	cbz	r3, 8000ff8 <I2C_MemoryTransmit_TXE_BTF+0x72>
 8000fde:	2a21      	cmp	r2, #33	@ 0x21
 8000fe0:	d10a      	bne.n	8000ff8 <I2C_MemoryTransmit_TXE_BTF+0x72>
 8000fe2:	6a43      	ldr	r3, [r0, #36]	@ 0x24
 8000fe4:	6802      	ldr	r2, [r0, #0]
 8000fe6:	f813 1b01 	ldrb.w	r1, [r3], #1
 8000fea:	6111      	str	r1, [r2, #16]
 8000fec:	6243      	str	r3, [r0, #36]	@ 0x24
 8000fee:	8d43      	ldrh	r3, [r0, #42]	@ 0x2a
 8000ff0:	3b01      	subs	r3, #1
 8000ff2:	b29b      	uxth	r3, r3
 8000ff4:	8543      	strh	r3, [r0, #42]	@ 0x2a
 8000ff6:	e7d6      	b.n	8000fa6 <I2C_MemoryTransmit_TXE_BTF+0x20>
 8000ff8:	8d43      	ldrh	r3, [r0, #42]	@ 0x2a
 8000ffa:	b29b      	uxth	r3, r3
 8000ffc:	2b00      	cmp	r3, #0
 8000ffe:	d1d2      	bne.n	8000fa6 <I2C_MemoryTransmit_TXE_BTF+0x20>
 8001000:	2a21      	cmp	r2, #33	@ 0x21
 8001002:	d1d0      	bne.n	8000fa6 <I2C_MemoryTransmit_TXE_BTF+0x20>
 8001004:	6802      	ldr	r2, [r0, #0]
 8001006:	6851      	ldr	r1, [r2, #4]
 8001008:	f421 61e0 	bic.w	r1, r1, #1792	@ 0x700
 800100c:	6051      	str	r1, [r2, #4]
 800100e:	6811      	ldr	r1, [r2, #0]
 8001010:	f441 7100 	orr.w	r1, r1, #512	@ 0x200
 8001014:	6011      	str	r1, [r2, #0]
 8001016:	2220      	movs	r2, #32
 8001018:	6303      	str	r3, [r0, #48]	@ 0x30
 800101a:	f880 203d 	strb.w	r2, [r0, #61]	@ 0x3d
 800101e:	f880 303e 	strb.w	r3, [r0, #62]	@ 0x3e
 8001022:	f7ff ffaf 	bl	8000f84 <HAL_I2C_MemTxCpltCallback>
 8001026:	e7be      	b.n	8000fa6 <I2C_MemoryTransmit_TXE_BTF+0x20>
 8001028:	6803      	ldr	r3, [r0, #0]
 800102a:	695a      	ldr	r2, [r3, #20]
 800102c:	0612      	lsls	r2, r2, #24
 800102e:	bf44      	itt	mi
 8001030:	2200      	movmi	r2, #0
 8001032:	611a      	strmi	r2, [r3, #16]
 8001034:	e7b7      	b.n	8000fa6 <I2C_MemoryTransmit_TXE_BTF+0x20>

08001036 <HAL_I2C_MemRxCpltCallback>:
 8001036:	4770      	bx	lr

08001038 <HAL_I2C_ErrorCallback>:
 8001038:	4770      	bx	lr

0800103a <HAL_I2C_AbortCpltCallback>:
 800103a:	4770      	bx	lr

0800103c <I2C_DMAAbort>:
 800103c:	2300      	movs	r3, #0
 800103e:	b537      	push	{r0, r1, r2, r4, r5, lr}
 8001040:	f246 11a8 	movw	r1, #25000	@ 0x61a8
 8001044:	9301      	str	r3, [sp, #4]
 8001046:	4b2c      	ldr	r3, [pc, #176]	@ (80010f8 <I2C_DMAAbort+0xbc>)
 8001048:	6a40      	ldr	r0, [r0, #36]	@ 0x24
 800104a:	681b      	ldr	r3, [r3, #0]
 800104c:	f890 203d 	ldrb.w	r2, [r0, #61]	@ 0x3d
 8001050:	fbb3 f3f1 	udiv	r3, r3, r1
 8001054:	2123      	movs	r1, #35	@ 0x23
 8001056:	434b      	muls	r3, r1
 8001058:	9301      	str	r3, [sp, #4]
 800105a:	6803      	ldr	r3, [r0, #0]
 800105c:	b2d2      	uxtb	r2, r2
 800105e:	9901      	ldr	r1, [sp, #4]
 8001060:	bb41      	cbnz	r1, 80010b4 <I2C_DMAAbort+0x78>
 8001062:	6c01      	ldr	r1, [r0, #64]	@ 0x40
 8001064:	f041 0120 	orr.w	r1, r1, #32
 8001068:	6401      	str	r1, [r0, #64]	@ 0x40
 800106a:	6b44      	ldr	r4, [r0, #52]	@ 0x34
 800106c:	b10c      	cbz	r4, 8001072 <I2C_DMAAbort+0x36>
 800106e:	2100      	movs	r1, #0
 8001070:	62a1      	str	r1, [r4, #40]	@ 0x28
 8001072:	6b81      	ldr	r1, [r0, #56]	@ 0x38
 8001074:	b109      	cbz	r1, 800107a <I2C_DMAAbort+0x3e>
 8001076:	2500      	movs	r5, #0
 8001078:	628d      	str	r5, [r1, #40]	@ 0x28
 800107a:	681d      	ldr	r5, [r3, #0]
 800107c:	f425 6580 	bic.w	r5, r5, #1024	@ 0x400
 8001080:	601d      	str	r5, [r3, #0]
 8001082:	2500      	movs	r5, #0
 8001084:	8545      	strh	r5, [r0, #42]	@ 0x2a
 8001086:	b104      	cbz	r4, 800108a <I2C_DMAAbort+0x4e>
 8001088:	6365      	str	r5, [r4, #52]	@ 0x34
 800108a:	b101      	cbz	r1, 800108e <I2C_DMAAbort+0x52>
 800108c:	634d      	str	r5, [r1, #52]	@ 0x34
 800108e:	6819      	ldr	r1, [r3, #0]
 8001090:	f021 0101 	bic.w	r1, r1, #1
 8001094:	6019      	str	r1, [r3, #0]
 8001096:	f890 103d 	ldrb.w	r1, [r0, #61]	@ 0x3d
 800109a:	2960      	cmp	r1, #96	@ 0x60
 800109c:	d111      	bne.n	80010c2 <I2C_DMAAbort+0x86>
 800109e:	2320      	movs	r3, #32
 80010a0:	f880 303d 	strb.w	r3, [r0, #61]	@ 0x3d
 80010a4:	2300      	movs	r3, #0
 80010a6:	f880 303e 	strb.w	r3, [r0, #62]	@ 0x3e
 80010aa:	6403      	str	r3, [r0, #64]	@ 0x40
 80010ac:	f7ff ffc5 	bl	800103a <HAL_I2C_AbortCpltCallback>
 80010b0:	b003      	add	sp, #12
 80010b2:	bd30      	pop	{r4, r5, pc}
 80010b4:	9901      	ldr	r1, [sp, #4]
 80010b6:	3901      	subs	r1, #1
 80010b8:	9101      	str	r1, [sp, #4]
 80010ba:	6819      	ldr	r1, [r3, #0]
 80010bc:	0589      	lsls	r1, r1, #22
 80010be:	d4ce      	bmi.n	800105e <I2C_DMAAbort+0x22>
 80010c0:	e7d3      	b.n	800106a <I2C_DMAAbort+0x2e>
 80010c2:	f002 0228 	and.w	r2, r2, #40	@ 0x28
 80010c6:	2a28      	cmp	r2, #40	@ 0x28
 80010c8:	d10e      	bne.n	80010e8 <I2C_DMAAbort+0xac>
 80010ca:	6819      	ldr	r1, [r3, #0]
 80010cc:	f041 0101 	orr.w	r1, r1, #1
 80010d0:	6019      	str	r1, [r3, #0]
 80010d2:	6819      	ldr	r1, [r3, #0]
 80010d4:	f441 6180 	orr.w	r1, r1, #1024	@ 0x400
 80010d8:	6019      	str	r1, [r3, #0]
 80010da:	2300      	movs	r3, #0
 80010dc:	6303      	str	r3, [r0, #48]	@ 0x30
 80010de:	f880 203d 	strb.w	r2, [r0, #61]	@ 0x3d
 80010e2:	f7ff ffa9 	bl	8001038 <HAL_I2C_ErrorCallback>
 80010e6:	e7e3      	b.n	80010b0 <I2C_DMAAbort+0x74>
 80010e8:	2320      	movs	r3, #32
 80010ea:	f880 303d 	strb.w	r3, [r0, #61]	@ 0x3d
 80010ee:	2300      	movs	r3, #0
 80010f0:	f880 303e 	strb.w	r3, [r0, #62]	@ 0x3e
 80010f4:	e7f5      	b.n	80010e2 <I2C_DMAAbort+0xa6>
 80010f6:	bf00      	nop
 80010f8:	20000000 	.word	0x20000000

080010fc <I2C_ITError>:
 80010fc:	b510      	push	{r4, lr}
 80010fe:	f890 203d 	ldrb.w	r2, [r0, #61]	@ 0x3d
 8001102:	f890 303e 	ldrb.w	r3, [r0, #62]	@ 0x3e
 8001106:	4604      	mov	r4, r0
 8001108:	2b10      	cmp	r3, #16
 800110a:	b2d9      	uxtb	r1, r3
 800110c:	b2d2      	uxtb	r2, r2
 800110e:	6803      	ldr	r3, [r0, #0]
 8001110:	d001      	beq.n	8001116 <I2C_ITError+0x1a>
 8001112:	2940      	cmp	r1, #64	@ 0x40
 8001114:	d113      	bne.n	800113e <I2C_ITError+0x42>
 8001116:	2a22      	cmp	r2, #34	@ 0x22
 8001118:	d111      	bne.n	800113e <I2C_ITError+0x42>
 800111a:	6819      	ldr	r1, [r3, #0]
 800111c:	f421 6100 	bic.w	r1, r1, #2048	@ 0x800
 8001120:	6019      	str	r1, [r3, #0]
 8001122:	6859      	ldr	r1, [r3, #4]
 8001124:	f411 6100 	ands.w	r1, r1, #2048	@ 0x800
 8001128:	d106      	bne.n	8001138 <I2C_ITError+0x3c>
 800112a:	2a60      	cmp	r2, #96	@ 0x60
 800112c:	bf1e      	ittt	ne
 800112e:	2220      	movne	r2, #32
 8001130:	f884 203d 	strbne.w	r2, [r4, #61]	@ 0x3d
 8001134:	f884 103e 	strbne.w	r1, [r4, #62]	@ 0x3e
 8001138:	2200      	movs	r2, #0
 800113a:	6322      	str	r2, [r4, #48]	@ 0x30
 800113c:	e007      	b.n	800114e <I2C_ITError+0x52>
 800113e:	f002 0128 	and.w	r1, r2, #40	@ 0x28
 8001142:	2928      	cmp	r1, #40	@ 0x28
 8001144:	d1ed      	bne.n	8001122 <I2C_ITError+0x26>
 8001146:	2200      	movs	r2, #0
 8001148:	6322      	str	r2, [r4, #48]	@ 0x30
 800114a:	f884 103d 	strb.w	r1, [r4, #61]	@ 0x3d
 800114e:	685a      	ldr	r2, [r3, #4]
 8001150:	f412 6200 	ands.w	r2, r2, #2048	@ 0x800
 8001154:	d04f      	beq.n	80011f6 <I2C_ITError+0xfa>
 8001156:	685a      	ldr	r2, [r3, #4]
 8001158:	6b60      	ldr	r0, [r4, #52]	@ 0x34
 800115a:	f422 6200 	bic.w	r2, r2, #2048	@ 0x800
 800115e:	605a      	str	r2, [r3, #4]
 8001160:	f890 3021 	ldrb.w	r3, [r0, #33]	@ 0x21
 8001164:	2b01      	cmp	r3, #1
 8001166:	4b37      	ldr	r3, [pc, #220]	@ (8001244 <I2C_ITError+0x148>)
 8001168:	d02b      	beq.n	80011c2 <I2C_ITError+0xc6>
 800116a:	6343      	str	r3, [r0, #52]	@ 0x34
 800116c:	f7ff fc8e 	bl	8000a8c <HAL_DMA_Abort_IT>
 8001170:	b150      	cbz	r0, 8001188 <I2C_ITError+0x8c>
 8001172:	6822      	ldr	r2, [r4, #0]
 8001174:	6b60      	ldr	r0, [r4, #52]	@ 0x34
 8001176:	6813      	ldr	r3, [r2, #0]
 8001178:	f023 0301 	bic.w	r3, r3, #1
 800117c:	6013      	str	r3, [r2, #0]
 800117e:	2320      	movs	r3, #32
 8001180:	f884 303d 	strb.w	r3, [r4, #61]	@ 0x3d
 8001184:	6b43      	ldr	r3, [r0, #52]	@ 0x34
 8001186:	4798      	blx	r3
 8001188:	6c23      	ldr	r3, [r4, #64]	@ 0x40
 800118a:	0719      	lsls	r1, r3, #28
 800118c:	bf1f      	itttt	ne
 800118e:	6822      	ldrne	r2, [r4, #0]
 8001190:	6853      	ldrne	r3, [r2, #4]
 8001192:	f423 63e0 	bicne.w	r3, r3, #1792	@ 0x700
 8001196:	6053      	strne	r3, [r2, #4]
 8001198:	f894 303d 	ldrb.w	r3, [r4, #61]	@ 0x3d
 800119c:	6c22      	ldr	r2, [r4, #64]	@ 0x40
 800119e:	b2db      	uxtb	r3, r3
 80011a0:	0752      	lsls	r2, r2, #29
 80011a2:	d50d      	bpl.n	80011c0 <I2C_ITError+0xc4>
 80011a4:	2b28      	cmp	r3, #40	@ 0x28
 80011a6:	d10b      	bne.n	80011c0 <I2C_ITError+0xc4>
 80011a8:	4b27      	ldr	r3, [pc, #156]	@ (8001248 <I2C_ITError+0x14c>)
 80011aa:	2220      	movs	r2, #32
 80011ac:	62e3      	str	r3, [r4, #44]	@ 0x2c
 80011ae:	2300      	movs	r3, #0
 80011b0:	4620      	mov	r0, r4
 80011b2:	6323      	str	r3, [r4, #48]	@ 0x30
 80011b4:	f884 203d 	strb.w	r2, [r4, #61]	@ 0x3d
 80011b8:	f884 303e 	strb.w	r3, [r4, #62]	@ 0x3e
 80011bc:	f7ff fee1 	bl	8000f82 <HAL_I2C_ListenCpltCallback>
 80011c0:	bd10      	pop	{r4, pc}
 80011c2:	6ba0      	ldr	r0, [r4, #56]	@ 0x38
 80011c4:	6343      	str	r3, [r0, #52]	@ 0x34
 80011c6:	f7ff fc61 	bl	8000a8c <HAL_DMA_Abort_IT>
 80011ca:	2800      	cmp	r0, #0
 80011cc:	d0dc      	beq.n	8001188 <I2C_ITError+0x8c>
 80011ce:	6823      	ldr	r3, [r4, #0]
 80011d0:	695a      	ldr	r2, [r3, #20]
 80011d2:	0651      	lsls	r1, r2, #25
 80011d4:	d505      	bpl.n	80011e2 <I2C_ITError+0xe6>
 80011d6:	691a      	ldr	r2, [r3, #16]
 80011d8:	6a63      	ldr	r3, [r4, #36]	@ 0x24
 80011da:	701a      	strb	r2, [r3, #0]
 80011dc:	6a63      	ldr	r3, [r4, #36]	@ 0x24
 80011de:	3301      	adds	r3, #1
 80011e0:	6263      	str	r3, [r4, #36]	@ 0x24
 80011e2:	6822      	ldr	r2, [r4, #0]
 80011e4:	6ba0      	ldr	r0, [r4, #56]	@ 0x38
 80011e6:	6813      	ldr	r3, [r2, #0]
 80011e8:	f023 0301 	bic.w	r3, r3, #1
 80011ec:	6013      	str	r3, [r2, #0]
 80011ee:	2320      	movs	r3, #32
 80011f0:	f884 303d 	strb.w	r3, [r4, #61]	@ 0x3d
 80011f4:	e7c6      	b.n	8001184 <I2C_ITError+0x88>
 80011f6:	f894 103d 	ldrb.w	r1, [r4, #61]	@ 0x3d
 80011fa:	2960      	cmp	r1, #96	@ 0x60
 80011fc:	d115      	bne.n	800122a <I2C_ITError+0x12e>
 80011fe:	2120      	movs	r1, #32
 8001200:	f884 103d 	strb.w	r1, [r4, #61]	@ 0x3d
 8001204:	6422      	str	r2, [r4, #64]	@ 0x40
 8001206:	695a      	ldr	r2, [r3, #20]
 8001208:	0652      	lsls	r2, r2, #25
 800120a:	d505      	bpl.n	8001218 <I2C_ITError+0x11c>
 800120c:	691a      	ldr	r2, [r3, #16]
 800120e:	6a63      	ldr	r3, [r4, #36]	@ 0x24
 8001210:	701a      	strb	r2, [r3, #0]
 8001212:	6a63      	ldr	r3, [r4, #36]	@ 0x24
 8001214:	3301      	adds	r3, #1
 8001216:	6263      	str	r3, [r4, #36]	@ 0x24
 8001218:	6822      	ldr	r2, [r4, #0]
 800121a:	4620      	mov	r0, r4
 800121c:	6813      	ldr	r3, [r2, #0]
 800121e:	f023 0301 	bic.w	r3, r3, #1
 8001222:	6013      	str	r3, [r2, #0]
 8001224:	f7ff ff09 	bl	800103a <HAL_I2C_AbortCpltCallback>
 8001228:	e7ae      	b.n	8001188 <I2C_ITError+0x8c>
 800122a:	695a      	ldr	r2, [r3, #20]
 800122c:	0650      	lsls	r0, r2, #25
 800122e:	d505      	bpl.n	800123c <I2C_ITError+0x140>
 8001230:	691a      	ldr	r2, [r3, #16]
 8001232:	6a63      	ldr	r3, [r4, #36]	@ 0x24
 8001234:	701a      	strb	r2, [r3, #0]
 8001236:	6a63      	ldr	r3, [r4, #36]	@ 0x24
 8001238:	3301      	adds	r3, #1
 800123a:	6263      	str	r3, [r4, #36]	@ 0x24
 800123c:	4620      	mov	r0, r4
 800123e:	f7ff fefb 	bl	8001038 <HAL_I2C_ErrorCallback>
 8001242:	e7a1      	b.n	8001188 <I2C_ITError+0x8c>
 8001244:	0800103d 	.word	0x0800103d
 8001248:	ffff0000 	.word	0xffff0000

0800124c <HAL_I2C_EV_IRQHandler>:
 800124c:	b5f0      	push	{r4, r5, r6, r7, lr}
 800124e:	4604      	mov	r4, r0
 8001250:	6803      	ldr	r3, [r0, #0]
 8001252:	b08f      	sub	sp, #60	@ 0x3c
 8001254:	685a      	ldr	r2, [r3, #4]
 8001256:	6ac6      	ldr	r6, [r0, #44]	@ 0x2c
 8001258:	f890 003e 	ldrb.w	r0, [r0, #62]	@ 0x3e
 800125c:	f894 103d 	ldrb.w	r1, [r4, #61]	@ 0x3d
 8001260:	2810      	cmp	r0, #16
 8001262:	b2c5      	uxtb	r5, r0
 8001264:	b2c9      	uxtb	r1, r1
 8001266:	d002      	beq.n	800126e <HAL_I2C_EV_IRQHandler+0x22>
 8001268:	2d40      	cmp	r5, #64	@ 0x40
 800126a:	f040 82e5 	bne.w	8001838 <HAL_I2C_EV_IRQHandler+0x5ec>
 800126e:	699f      	ldr	r7, [r3, #24]
 8001270:	6958      	ldr	r0, [r3, #20]
 8001272:	f010 0f01 	tst.w	r0, #1
 8001276:	d107      	bne.n	8001288 <HAL_I2C_EV_IRQHandler+0x3c>
 8001278:	f5b6 0f2a 	cmp.w	r6, #11141120	@ 0xaa0000
 800127c:	d002      	beq.n	8001284 <HAL_I2C_EV_IRQHandler+0x38>
 800127e:	f1b6 4f2a 	cmp.w	r6, #2852126720	@ 0xaa000000
 8001282:	d151      	bne.n	8001328 <HAL_I2C_EV_IRQHandler+0xdc>
 8001284:	b00f      	add	sp, #60	@ 0x3c
 8001286:	bdf0      	pop	{r4, r5, r6, r7, pc}
 8001288:	0596      	lsls	r6, r2, #22
 800128a:	d54d      	bpl.n	8001328 <HAL_I2C_EV_IRQHandler+0xdc>
 800128c:	6ae2      	ldr	r2, [r4, #44]	@ 0x2c
 800128e:	f5b2 0f2a 	cmp.w	r2, #11141120	@ 0xaa0000
 8001292:	d10c      	bne.n	80012ae <HAL_I2C_EV_IRQHandler+0x62>
 8001294:	2201      	movs	r2, #1
 8001296:	62e2      	str	r2, [r4, #44]	@ 0x2c
 8001298:	f894 203e 	ldrb.w	r2, [r4, #62]	@ 0x3e
 800129c:	2a40      	cmp	r2, #64	@ 0x40
 800129e:	d111      	bne.n	80012c4 <HAL_I2C_EV_IRQHandler+0x78>
 80012a0:	6d22      	ldr	r2, [r4, #80]	@ 0x50
 80012a2:	b952      	cbnz	r2, 80012ba <HAL_I2C_EV_IRQHandler+0x6e>
 80012a4:	6c62      	ldr	r2, [r4, #68]	@ 0x44
 80012a6:	f002 02fe 	and.w	r2, r2, #254	@ 0xfe
 80012aa:	611a      	str	r2, [r3, #16]
 80012ac:	e7ea      	b.n	8001284 <HAL_I2C_EV_IRQHandler+0x38>
 80012ae:	6ae2      	ldr	r2, [r4, #44]	@ 0x2c
 80012b0:	f1b2 4f2a 	cmp.w	r2, #2852126720	@ 0xaa000000
 80012b4:	d1f0      	bne.n	8001298 <HAL_I2C_EV_IRQHandler+0x4c>
 80012b6:	2208      	movs	r2, #8
 80012b8:	e7ed      	b.n	8001296 <HAL_I2C_EV_IRQHandler+0x4a>
 80012ba:	6c62      	ldr	r2, [r4, #68]	@ 0x44
 80012bc:	f042 0201 	orr.w	r2, r2, #1
 80012c0:	b2d2      	uxtb	r2, r2
 80012c2:	e7f2      	b.n	80012aa <HAL_I2C_EV_IRQHandler+0x5e>
 80012c4:	6922      	ldr	r2, [r4, #16]
 80012c6:	f5b2 4f80 	cmp.w	r2, #16384	@ 0x4000
 80012ca:	d11a      	bne.n	8001302 <HAL_I2C_EV_IRQHandler+0xb6>
 80012cc:	f894 203d 	ldrb.w	r2, [r4, #61]	@ 0x3d
 80012d0:	2a21      	cmp	r2, #33	@ 0x21
 80012d2:	6c62      	ldr	r2, [r4, #68]	@ 0x44
 80012d4:	d111      	bne.n	80012fa <HAL_I2C_EV_IRQHandler+0xae>
 80012d6:	f002 02fe 	and.w	r2, r2, #254	@ 0xfe
 80012da:	611a      	str	r2, [r3, #16]
 80012dc:	6b62      	ldr	r2, [r4, #52]	@ 0x34
 80012de:	b10a      	cbz	r2, 80012e4 <HAL_I2C_EV_IRQHandler+0x98>
 80012e0:	6a92      	ldr	r2, [r2, #40]	@ 0x28
 80012e2:	b92a      	cbnz	r2, 80012f0 <HAL_I2C_EV_IRQHandler+0xa4>
 80012e4:	6ba2      	ldr	r2, [r4, #56]	@ 0x38
 80012e6:	2a00      	cmp	r2, #0
 80012e8:	d0cc      	beq.n	8001284 <HAL_I2C_EV_IRQHandler+0x38>
 80012ea:	6a92      	ldr	r2, [r2, #40]	@ 0x28
 80012ec:	2a00      	cmp	r2, #0
 80012ee:	d0c9      	beq.n	8001284 <HAL_I2C_EV_IRQHandler+0x38>
 80012f0:	685a      	ldr	r2, [r3, #4]
 80012f2:	f442 6200 	orr.w	r2, r2, #2048	@ 0x800
 80012f6:	605a      	str	r2, [r3, #4]
 80012f8:	e7c4      	b.n	8001284 <HAL_I2C_EV_IRQHandler+0x38>
 80012fa:	f042 0201 	orr.w	r2, r2, #1
 80012fe:	b2d2      	uxtb	r2, r2
 8001300:	e7eb      	b.n	80012da <HAL_I2C_EV_IRQHandler+0x8e>
 8001302:	6d22      	ldr	r2, [r4, #80]	@ 0x50
 8001304:	b932      	cbnz	r2, 8001314 <HAL_I2C_EV_IRQHandler+0xc8>
 8001306:	6c62      	ldr	r2, [r4, #68]	@ 0x44
 8001308:	11d2      	asrs	r2, r2, #7
 800130a:	f002 0206 	and.w	r2, r2, #6
 800130e:	f042 02f0 	orr.w	r2, r2, #240	@ 0xf0
 8001312:	e7ca      	b.n	80012aa <HAL_I2C_EV_IRQHandler+0x5e>
 8001314:	6d22      	ldr	r2, [r4, #80]	@ 0x50
 8001316:	2a01      	cmp	r2, #1
 8001318:	d1b4      	bne.n	8001284 <HAL_I2C_EV_IRQHandler+0x38>
 800131a:	6c62      	ldr	r2, [r4, #68]	@ 0x44
 800131c:	11d2      	asrs	r2, r2, #7
 800131e:	f002 0206 	and.w	r2, r2, #6
 8001322:	f042 02f1 	orr.w	r2, r2, #241	@ 0xf1
 8001326:	e7c0      	b.n	80012aa <HAL_I2C_EV_IRQHandler+0x5e>
 8001328:	0706      	lsls	r6, r0, #28
 800132a:	d503      	bpl.n	8001334 <HAL_I2C_EV_IRQHandler+0xe8>
 800132c:	0596      	lsls	r6, r2, #22
 800132e:	d501      	bpl.n	8001334 <HAL_I2C_EV_IRQHandler+0xe8>
 8001330:	6c62      	ldr	r2, [r4, #68]	@ 0x44
 8001332:	e7e4      	b.n	80012fe <HAL_I2C_EV_IRQHandler+0xb2>
 8001334:	0786      	lsls	r6, r0, #30
 8001336:	f140 80f0 	bpl.w	800151a <HAL_I2C_EV_IRQHandler+0x2ce>
 800133a:	0596      	lsls	r6, r2, #22
 800133c:	f140 80ed 	bpl.w	800151a <HAL_I2C_EV_IRQHandler+0x2ce>
 8001340:	f894 103e 	ldrb.w	r1, [r4, #62]	@ 0x3e
 8001344:	6ae2      	ldr	r2, [r4, #44]	@ 0x2c
 8001346:	6b25      	ldr	r5, [r4, #48]	@ 0x30
 8001348:	f894 003d 	ldrb.w	r0, [r4, #61]	@ 0x3d
 800134c:	b2c9      	uxtb	r1, r1
 800134e:	2822      	cmp	r0, #34	@ 0x22
 8001350:	f040 80db 	bne.w	800150a <HAL_I2C_EV_IRQHandler+0x2be>
 8001354:	6d20      	ldr	r0, [r4, #80]	@ 0x50
 8001356:	b940      	cbnz	r0, 800136a <HAL_I2C_EV_IRQHandler+0x11e>
 8001358:	2940      	cmp	r1, #64	@ 0x40
 800135a:	d106      	bne.n	800136a <HAL_I2C_EV_IRQHandler+0x11e>
 800135c:	9000      	str	r0, [sp, #0]
 800135e:	695a      	ldr	r2, [r3, #20]
 8001360:	9200      	str	r2, [sp, #0]
 8001362:	699b      	ldr	r3, [r3, #24]
 8001364:	9300      	str	r3, [sp, #0]
 8001366:	9b00      	ldr	r3, [sp, #0]
 8001368:	e78c      	b.n	8001284 <HAL_I2C_EV_IRQHandler+0x38>
 800136a:	6d21      	ldr	r1, [r4, #80]	@ 0x50
 800136c:	b989      	cbnz	r1, 8001392 <HAL_I2C_EV_IRQHandler+0x146>
 800136e:	6920      	ldr	r0, [r4, #16]
 8001370:	f5b0 4f40 	cmp.w	r0, #49152	@ 0xc000
 8001374:	d10d      	bne.n	8001392 <HAL_I2C_EV_IRQHandler+0x146>
 8001376:	9101      	str	r1, [sp, #4]
 8001378:	695a      	ldr	r2, [r3, #20]
 800137a:	9201      	str	r2, [sp, #4]
 800137c:	699a      	ldr	r2, [r3, #24]
 800137e:	9201      	str	r2, [sp, #4]
 8001380:	9a01      	ldr	r2, [sp, #4]
 8001382:	681a      	ldr	r2, [r3, #0]
 8001384:	f442 7280 	orr.w	r2, r2, #256	@ 0x100
 8001388:	601a      	str	r2, [r3, #0]
 800138a:	6d23      	ldr	r3, [r4, #80]	@ 0x50
 800138c:	3301      	adds	r3, #1
 800138e:	6523      	str	r3, [r4, #80]	@ 0x50
 8001390:	e778      	b.n	8001284 <HAL_I2C_EV_IRQHandler+0x38>
 8001392:	8d61      	ldrh	r1, [r4, #42]	@ 0x2a
 8001394:	b289      	uxth	r1, r1
 8001396:	b951      	cbnz	r1, 80013ae <HAL_I2C_EV_IRQHandler+0x162>
 8001398:	9102      	str	r1, [sp, #8]
 800139a:	695a      	ldr	r2, [r3, #20]
 800139c:	9202      	str	r2, [sp, #8]
 800139e:	699a      	ldr	r2, [r3, #24]
 80013a0:	9202      	str	r2, [sp, #8]
 80013a2:	9a02      	ldr	r2, [sp, #8]
 80013a4:	681a      	ldr	r2, [r3, #0]
 80013a6:	f442 7200 	orr.w	r2, r2, #512	@ 0x200
 80013aa:	601a      	str	r2, [r3, #0]
 80013ac:	e019      	b.n	80013e2 <HAL_I2C_EV_IRQHandler+0x196>
 80013ae:	8d61      	ldrh	r1, [r4, #42]	@ 0x2a
 80013b0:	b289      	uxth	r1, r1
 80013b2:	2901      	cmp	r1, #1
 80013b4:	d149      	bne.n	800144a <HAL_I2C_EV_IRQHandler+0x1fe>
 80013b6:	f512 3f80 	cmn.w	r2, #65536	@ 0x10000
 80013ba:	d11b      	bne.n	80013f4 <HAL_I2C_EV_IRQHandler+0x1a8>
 80013bc:	681a      	ldr	r2, [r3, #0]
 80013be:	f422 6280 	bic.w	r2, r2, #1024	@ 0x400
 80013c2:	601a      	str	r2, [r3, #0]
 80013c4:	685a      	ldr	r2, [r3, #4]
 80013c6:	f412 6200 	ands.w	r2, r2, #2048	@ 0x800
 80013ca:	d00c      	beq.n	80013e6 <HAL_I2C_EV_IRQHandler+0x19a>
 80013cc:	681a      	ldr	r2, [r3, #0]
 80013ce:	f422 6280 	bic.w	r2, r2, #1024	@ 0x400
 80013d2:	601a      	str	r2, [r3, #0]
 80013d4:	2200      	movs	r2, #0
 80013d6:	9203      	str	r2, [sp, #12]
 80013d8:	695a      	ldr	r2, [r3, #20]
 80013da:	9203      	str	r2, [sp, #12]
 80013dc:	699b      	ldr	r3, [r3, #24]
 80013de:	9303      	str	r3, [sp, #12]
 80013e0:	9b03      	ldr	r3, [sp, #12]
 80013e2:	2300      	movs	r3, #0
 80013e4:	e7d3      	b.n	800138e <HAL_I2C_EV_IRQHandler+0x142>
 80013e6:	9204      	str	r2, [sp, #16]
 80013e8:	695a      	ldr	r2, [r3, #20]
 80013ea:	9204      	str	r2, [sp, #16]
 80013ec:	699a      	ldr	r2, [r3, #24]
 80013ee:	9204      	str	r2, [sp, #16]
 80013f0:	9a04      	ldr	r2, [sp, #16]
 80013f2:	e7d7      	b.n	80013a4 <HAL_I2C_EV_IRQHandler+0x158>
 80013f4:	2a08      	cmp	r2, #8
 80013f6:	d01c      	beq.n	8001432 <HAL_I2C_EV_IRQHandler+0x1e6>
 80013f8:	2a20      	cmp	r2, #32
 80013fa:	d01a      	beq.n	8001432 <HAL_I2C_EV_IRQHandler+0x1e6>
 80013fc:	2d12      	cmp	r5, #18
 80013fe:	d10d      	bne.n	800141c <HAL_I2C_EV_IRQHandler+0x1d0>
 8001400:	2a01      	cmp	r2, #1
 8001402:	d116      	bne.n	8001432 <HAL_I2C_EV_IRQHandler+0x1e6>
 8001404:	681a      	ldr	r2, [r3, #0]
 8001406:	f422 6280 	bic.w	r2, r2, #1024	@ 0x400
 800140a:	601a      	str	r2, [r3, #0]
 800140c:	2200      	movs	r2, #0
 800140e:	9205      	str	r2, [sp, #20]
 8001410:	695a      	ldr	r2, [r3, #20]
 8001412:	9205      	str	r2, [sp, #20]
 8001414:	699b      	ldr	r3, [r3, #24]
 8001416:	9305      	str	r3, [sp, #20]
 8001418:	9b05      	ldr	r3, [sp, #20]
 800141a:	e7e2      	b.n	80013e2 <HAL_I2C_EV_IRQHandler+0x196>
 800141c:	2a10      	cmp	r2, #16
 800141e:	d8f1      	bhi.n	8001404 <HAL_I2C_EV_IRQHandler+0x1b8>
 8001420:	4986      	ldr	r1, [pc, #536]	@ (800163c <HAL_I2C_EV_IRQHandler+0x3f0>)
 8001422:	fa41 f202 	asr.w	r2, r1, r2
 8001426:	07d7      	lsls	r7, r2, #31
 8001428:	d4ec      	bmi.n	8001404 <HAL_I2C_EV_IRQHandler+0x1b8>
 800142a:	681a      	ldr	r2, [r3, #0]
 800142c:	f442 6280 	orr.w	r2, r2, #1024	@ 0x400
 8001430:	e7eb      	b.n	800140a <HAL_I2C_EV_IRQHandler+0x1be>
 8001432:	681a      	ldr	r2, [r3, #0]
 8001434:	f422 6280 	bic.w	r2, r2, #1024	@ 0x400
 8001438:	601a      	str	r2, [r3, #0]
 800143a:	2200      	movs	r2, #0
 800143c:	9206      	str	r2, [sp, #24]
 800143e:	695a      	ldr	r2, [r3, #20]
 8001440:	9206      	str	r2, [sp, #24]
 8001442:	699a      	ldr	r2, [r3, #24]
 8001444:	9206      	str	r2, [sp, #24]
 8001446:	9a06      	ldr	r2, [sp, #24]
 8001448:	e7ac      	b.n	80013a4 <HAL_I2C_EV_IRQHandler+0x158>
 800144a:	8d61      	ldrh	r1, [r4, #42]	@ 0x2a
 800144c:	b289      	uxth	r1, r1
 800144e:	2902      	cmp	r1, #2
 8001450:	d138      	bne.n	80014c4 <HAL_I2C_EV_IRQHandler+0x278>
 8001452:	2a10      	cmp	r2, #16
 8001454:	d803      	bhi.n	800145e <HAL_I2C_EV_IRQHandler+0x212>
 8001456:	497a      	ldr	r1, [pc, #488]	@ (8001640 <HAL_I2C_EV_IRQHandler+0x3f4>)
 8001458:	40d1      	lsrs	r1, r2
 800145a:	07ce      	lsls	r6, r1, #31
 800145c:	d418      	bmi.n	8001490 <HAL_I2C_EV_IRQHandler+0x244>
 800145e:	6819      	ldr	r1, [r3, #0]
 8001460:	f441 6100 	orr.w	r1, r1, #2048	@ 0x800
 8001464:	6019      	str	r1, [r3, #0]
 8001466:	2100      	movs	r1, #0
 8001468:	9107      	str	r1, [sp, #28]
 800146a:	6959      	ldr	r1, [r3, #20]
 800146c:	9107      	str	r1, [sp, #28]
 800146e:	6999      	ldr	r1, [r3, #24]
 8001470:	9107      	str	r1, [sp, #28]
 8001472:	9907      	ldr	r1, [sp, #28]
 8001474:	6819      	ldr	r1, [r3, #0]
 8001476:	f421 6180 	bic.w	r1, r1, #1024	@ 0x400
 800147a:	6019      	str	r1, [r3, #0]
 800147c:	6859      	ldr	r1, [r3, #4]
 800147e:	050d      	lsls	r5, r1, #20
 8001480:	d5af      	bpl.n	80013e2 <HAL_I2C_EV_IRQHandler+0x196>
 8001482:	2a20      	cmp	r2, #32
 8001484:	d81b      	bhi.n	80014be <HAL_I2C_EV_IRQHandler+0x272>
 8001486:	2a07      	cmp	r2, #7
 8001488:	d80e      	bhi.n	80014a8 <HAL_I2C_EV_IRQHandler+0x25c>
 800148a:	2a01      	cmp	r2, #1
 800148c:	d1a9      	bne.n	80013e2 <HAL_I2C_EV_IRQHandler+0x196>
 800148e:	e011      	b.n	80014b4 <HAL_I2C_EV_IRQHandler+0x268>
 8001490:	6819      	ldr	r1, [r3, #0]
 8001492:	f441 6180 	orr.w	r1, r1, #1024	@ 0x400
 8001496:	6019      	str	r1, [r3, #0]
 8001498:	2100      	movs	r1, #0
 800149a:	9108      	str	r1, [sp, #32]
 800149c:	6959      	ldr	r1, [r3, #20]
 800149e:	9108      	str	r1, [sp, #32]
 80014a0:	6999      	ldr	r1, [r3, #24]
 80014a2:	9108      	str	r1, [sp, #32]
 80014a4:	9908      	ldr	r1, [sp, #32]
 80014a6:	e7e9      	b.n	800147c <HAL_I2C_EV_IRQHandler+0x230>
 80014a8:	f1a2 0108 	sub.w	r1, r2, #8
 80014ac:	4a65      	ldr	r2, [pc, #404]	@ (8001644 <HAL_I2C_EV_IRQHandler+0x3f8>)
 80014ae:	40ca      	lsrs	r2, r1
 80014b0:	07d0      	lsls	r0, r2, #31
 80014b2:	d596      	bpl.n	80013e2 <HAL_I2C_EV_IRQHandler+0x196>
 80014b4:	685a      	ldr	r2, [r3, #4]
 80014b6:	f442 5280 	orr.w	r2, r2, #4096	@ 0x1000
 80014ba:	605a      	str	r2, [r3, #4]
 80014bc:	e791      	b.n	80013e2 <HAL_I2C_EV_IRQHandler+0x196>
 80014be:	f512 3f80 	cmn.w	r2, #65536	@ 0x10000
 80014c2:	e7e3      	b.n	800148c <HAL_I2C_EV_IRQHandler+0x240>
 80014c4:	6819      	ldr	r1, [r3, #0]
 80014c6:	f441 6180 	orr.w	r1, r1, #1024	@ 0x400
 80014ca:	6019      	str	r1, [r3, #0]
 80014cc:	6859      	ldr	r1, [r3, #4]
 80014ce:	0509      	lsls	r1, r1, #20
 80014d0:	d510      	bpl.n	80014f4 <HAL_I2C_EV_IRQHandler+0x2a8>
 80014d2:	2a20      	cmp	r2, #32
 80014d4:	d816      	bhi.n	8001504 <HAL_I2C_EV_IRQHandler+0x2b8>
 80014d6:	2a07      	cmp	r2, #7
 80014d8:	d806      	bhi.n	80014e8 <HAL_I2C_EV_IRQHandler+0x29c>
 80014da:	2a01      	cmp	r2, #1
 80014dc:	d10a      	bne.n	80014f4 <HAL_I2C_EV_IRQHandler+0x2a8>
 80014de:	685a      	ldr	r2, [r3, #4]
 80014e0:	f442 5280 	orr.w	r2, r2, #4096	@ 0x1000
 80014e4:	605a      	str	r2, [r3, #4]
 80014e6:	e005      	b.n	80014f4 <HAL_I2C_EV_IRQHandler+0x2a8>
 80014e8:	f1a2 0108 	sub.w	r1, r2, #8
 80014ec:	4a55      	ldr	r2, [pc, #340]	@ (8001644 <HAL_I2C_EV_IRQHandler+0x3f8>)
 80014ee:	40ca      	lsrs	r2, r1
 80014f0:	07d2      	lsls	r2, r2, #31
 80014f2:	d4f4      	bmi.n	80014de <HAL_I2C_EV_IRQHandler+0x292>
 80014f4:	2200      	movs	r2, #0
 80014f6:	9209      	str	r2, [sp, #36]	@ 0x24
 80014f8:	695a      	ldr	r2, [r3, #20]
 80014fa:	9209      	str	r2, [sp, #36]	@ 0x24
 80014fc:	699b      	ldr	r3, [r3, #24]
 80014fe:	9309      	str	r3, [sp, #36]	@ 0x24
 8001500:	9b09      	ldr	r3, [sp, #36]	@ 0x24
 8001502:	e76e      	b.n	80013e2 <HAL_I2C_EV_IRQHandler+0x196>
 8001504:	f512 3f80 	cmn.w	r2, #65536	@ 0x10000
 8001508:	e7e8      	b.n	80014dc <HAL_I2C_EV_IRQHandler+0x290>
 800150a:	2200      	movs	r2, #0
 800150c:	920a      	str	r2, [sp, #40]	@ 0x28
 800150e:	695a      	ldr	r2, [r3, #20]
 8001510:	920a      	str	r2, [sp, #40]	@ 0x28
 8001512:	699b      	ldr	r3, [r3, #24]
 8001514:	930a      	str	r3, [sp, #40]	@ 0x28
 8001516:	9b0a      	ldr	r3, [sp, #40]	@ 0x28
 8001518:	e6b4      	b.n	8001284 <HAL_I2C_EV_IRQHandler+0x38>
 800151a:	077f      	lsls	r7, r7, #29
 800151c:	f140 8094 	bpl.w	8001648 <HAL_I2C_EV_IRQHandler+0x3fc>
 8001520:	685e      	ldr	r6, [r3, #4]
 8001522:	0536      	lsls	r6, r6, #20
 8001524:	f53f aeae 	bmi.w	8001284 <HAL_I2C_EV_IRQHandler+0x38>
 8001528:	0607      	lsls	r7, r0, #24
 800152a:	f000 0604 	and.w	r6, r0, #4
 800152e:	d53e      	bpl.n	80015ae <HAL_I2C_EV_IRQHandler+0x362>
 8001530:	0550      	lsls	r0, r2, #21
 8001532:	d53c      	bpl.n	80015ae <HAL_I2C_EV_IRQHandler+0x362>
 8001534:	2e00      	cmp	r6, #0
 8001536:	d13d      	bne.n	80015b4 <HAL_I2C_EV_IRQHandler+0x368>
 8001538:	f894 203d 	ldrb.w	r2, [r4, #61]	@ 0x3d
 800153c:	8d25      	ldrh	r5, [r4, #40]	@ 0x28
 800153e:	f894 103e 	ldrb.w	r1, [r4, #62]	@ 0x3e
 8001542:	b2d2      	uxtb	r2, r2
 8001544:	6ae0      	ldr	r0, [r4, #44]	@ 0x2c
 8001546:	b2c9      	uxtb	r1, r1
 8001548:	b9c5      	cbnz	r5, 800157c <HAL_I2C_EV_IRQHandler+0x330>
 800154a:	2a21      	cmp	r2, #33	@ 0x21
 800154c:	d118      	bne.n	8001580 <HAL_I2C_EV_IRQHandler+0x334>
 800154e:	2808      	cmp	r0, #8
 8001550:	d058      	beq.n	8001604 <HAL_I2C_EV_IRQHandler+0x3b8>
 8001552:	2820      	cmp	r0, #32
 8001554:	d056      	beq.n	8001604 <HAL_I2C_EV_IRQHandler+0x3b8>
 8001556:	f510 3f80 	cmn.w	r0, #65536	@ 0x10000
 800155a:	d053      	beq.n	8001604 <HAL_I2C_EV_IRQHandler+0x3b8>
 800155c:	685a      	ldr	r2, [r3, #4]
 800155e:	f422 62e0 	bic.w	r2, r2, #1792	@ 0x700
 8001562:	605a      	str	r2, [r3, #4]
 8001564:	2311      	movs	r3, #17
 8001566:	6323      	str	r3, [r4, #48]	@ 0x30
 8001568:	2300      	movs	r3, #0
 800156a:	f884 303e 	strb.w	r3, [r4, #62]	@ 0x3e
 800156e:	2320      	movs	r3, #32
 8001570:	4620      	mov	r0, r4
 8001572:	f884 303d 	strb.w	r3, [r4, #61]	@ 0x3d
 8001576:	f7ff fcff 	bl	8000f78 <HAL_I2C_MasterTxCpltCallback>
 800157a:	e683      	b.n	8001284 <HAL_I2C_EV_IRQHandler+0x38>
 800157c:	2a21      	cmp	r2, #33	@ 0x21
 800157e:	d005      	beq.n	800158c <HAL_I2C_EV_IRQHandler+0x340>
 8001580:	2940      	cmp	r1, #64	@ 0x40
 8001582:	f47f ae7f 	bne.w	8001284 <HAL_I2C_EV_IRQHandler+0x38>
 8001586:	2a22      	cmp	r2, #34	@ 0x22
 8001588:	f47f ae7c 	bne.w	8001284 <HAL_I2C_EV_IRQHandler+0x38>
 800158c:	8d62      	ldrh	r2, [r4, #42]	@ 0x2a
 800158e:	b292      	uxth	r2, r2
 8001590:	b91a      	cbnz	r2, 800159a <HAL_I2C_EV_IRQHandler+0x34e>
 8001592:	685a      	ldr	r2, [r3, #4]
 8001594:	f422 6280 	bic.w	r2, r2, #1024	@ 0x400
 8001598:	e6ad      	b.n	80012f6 <HAL_I2C_EV_IRQHandler+0xaa>
 800159a:	f894 203e 	ldrb.w	r2, [r4, #62]	@ 0x3e
 800159e:	2a40      	cmp	r2, #64	@ 0x40
 80015a0:	d116      	bne.n	80015d0 <HAL_I2C_EV_IRQHandler+0x384>
 80015a2:	4620      	mov	r0, r4
 80015a4:	b00f      	add	sp, #60	@ 0x3c
 80015a6:	e8bd 40f0 	ldmia.w	sp!, {r4, r5, r6, r7, lr}
 80015aa:	f7ff bcec 	b.w	8000f86 <I2C_MemoryTransmit_TXE_BTF>
 80015ae:	2e00      	cmp	r6, #0
 80015b0:	f43f ae68 	beq.w	8001284 <HAL_I2C_EV_IRQHandler+0x38>
 80015b4:	0597      	lsls	r7, r2, #22
 80015b6:	f57f ae65 	bpl.w	8001284 <HAL_I2C_EV_IRQHandler+0x38>
 80015ba:	2921      	cmp	r1, #33	@ 0x21
 80015bc:	d139      	bne.n	8001632 <HAL_I2C_EV_IRQHandler+0x3e6>
 80015be:	6ae1      	ldr	r1, [r4, #44]	@ 0x2c
 80015c0:	f894 203d 	ldrb.w	r2, [r4, #61]	@ 0x3d
 80015c4:	2a21      	cmp	r2, #33	@ 0x21
 80015c6:	f47f ae5d 	bne.w	8001284 <HAL_I2C_EV_IRQHandler+0x38>
 80015ca:	8d62      	ldrh	r2, [r4, #42]	@ 0x2a
 80015cc:	b292      	uxth	r2, r2
 80015ce:	b14a      	cbz	r2, 80015e4 <HAL_I2C_EV_IRQHandler+0x398>
 80015d0:	6a62      	ldr	r2, [r4, #36]	@ 0x24
 80015d2:	f812 1b01 	ldrb.w	r1, [r2], #1
 80015d6:	6119      	str	r1, [r3, #16]
 80015d8:	6262      	str	r2, [r4, #36]	@ 0x24
 80015da:	8d63      	ldrh	r3, [r4, #42]	@ 0x2a
 80015dc:	3b01      	subs	r3, #1
 80015de:	b29b      	uxth	r3, r3
 80015e0:	8563      	strh	r3, [r4, #42]	@ 0x2a
 80015e2:	e64f      	b.n	8001284 <HAL_I2C_EV_IRQHandler+0x38>
 80015e4:	2908      	cmp	r1, #8
 80015e6:	d00d      	beq.n	8001604 <HAL_I2C_EV_IRQHandler+0x3b8>
 80015e8:	2920      	cmp	r1, #32
 80015ea:	d00b      	beq.n	8001604 <HAL_I2C_EV_IRQHandler+0x3b8>
 80015ec:	f511 3f80 	cmn.w	r1, #65536	@ 0x10000
 80015f0:	d008      	beq.n	8001604 <HAL_I2C_EV_IRQHandler+0x3b8>
 80015f2:	6859      	ldr	r1, [r3, #4]
 80015f4:	f421 61e0 	bic.w	r1, r1, #1792	@ 0x700
 80015f8:	6059      	str	r1, [r3, #4]
 80015fa:	2311      	movs	r3, #17
 80015fc:	6323      	str	r3, [r4, #48]	@ 0x30
 80015fe:	f884 203e 	strb.w	r2, [r4, #62]	@ 0x3e
 8001602:	e7b4      	b.n	800156e <HAL_I2C_EV_IRQHandler+0x322>
 8001604:	685a      	ldr	r2, [r3, #4]
 8001606:	4620      	mov	r0, r4
 8001608:	f422 62e0 	bic.w	r2, r2, #1792	@ 0x700
 800160c:	605a      	str	r2, [r3, #4]
 800160e:	681a      	ldr	r2, [r3, #0]
 8001610:	f442 7200 	orr.w	r2, r2, #512	@ 0x200
 8001614:	601a      	str	r2, [r3, #0]
 8001616:	2300      	movs	r3, #0
 8001618:	2220      	movs	r2, #32
 800161a:	6323      	str	r3, [r4, #48]	@ 0x30
 800161c:	f884 203d 	strb.w	r2, [r4, #61]	@ 0x3d
 8001620:	f894 203e 	ldrb.w	r2, [r4, #62]	@ 0x3e
 8001624:	f884 303e 	strb.w	r3, [r4, #62]	@ 0x3e
 8001628:	2a40      	cmp	r2, #64	@ 0x40
 800162a:	d1a4      	bne.n	8001576 <HAL_I2C_EV_IRQHandler+0x32a>
 800162c:	f7ff fcaa 	bl	8000f84 <HAL_I2C_MemTxCpltCallback>
 8001630:	e628      	b.n	8001284 <HAL_I2C_EV_IRQHandler+0x38>
 8001632:	2d40      	cmp	r5, #64	@ 0x40
 8001634:	f47f ae26 	bne.w	8001284 <HAL_I2C_EV_IRQHandler+0x38>
 8001638:	e7b3      	b.n	80015a2 <HAL_I2C_EV_IRQHandler+0x356>
 800163a:	bf00      	nop
 800163c:	fffeffeb 	.word	0xfffeffeb
 8001640:	00010014 	.word	0x00010014
 8001644:	01000101 	.word	0x01000101
 8001648:	6859      	ldr	r1, [r3, #4]
 800164a:	050e      	lsls	r6, r1, #20
 800164c:	f53f ae1a 	bmi.w	8001284 <HAL_I2C_EV_IRQHandler+0x38>
 8001650:	0645      	lsls	r5, r0, #25
 8001652:	f000 0104 	and.w	r1, r0, #4
 8001656:	f140 8086 	bpl.w	8001766 <HAL_I2C_EV_IRQHandler+0x51a>
 800165a:	0550      	lsls	r0, r2, #21
 800165c:	f140 8083 	bpl.w	8001766 <HAL_I2C_EV_IRQHandler+0x51a>
 8001660:	2900      	cmp	r1, #0
 8001662:	f040 8083 	bne.w	800176c <HAL_I2C_EV_IRQHandler+0x520>
 8001666:	f894 203d 	ldrb.w	r2, [r4, #61]	@ 0x3d
 800166a:	2a22      	cmp	r2, #34	@ 0x22
 800166c:	f47f ae0a 	bne.w	8001284 <HAL_I2C_EV_IRQHandler+0x38>
 8001670:	6ae0      	ldr	r0, [r4, #44]	@ 0x2c
 8001672:	8d62      	ldrh	r2, [r4, #42]	@ 0x2a
 8001674:	b292      	uxth	r2, r2
 8001676:	2a03      	cmp	r2, #3
 8001678:	d914      	bls.n	80016a4 <HAL_I2C_EV_IRQHandler+0x458>
 800167a:	691a      	ldr	r2, [r3, #16]
 800167c:	6a63      	ldr	r3, [r4, #36]	@ 0x24
 800167e:	701a      	strb	r2, [r3, #0]
 8001680:	6a63      	ldr	r3, [r4, #36]	@ 0x24
 8001682:	3301      	adds	r3, #1
 8001684:	6263      	str	r3, [r4, #36]	@ 0x24
 8001686:	8d63      	ldrh	r3, [r4, #42]	@ 0x2a
 8001688:	3b01      	subs	r3, #1
 800168a:	b29b      	uxth	r3, r3
 800168c:	8563      	strh	r3, [r4, #42]	@ 0x2a
 800168e:	8d63      	ldrh	r3, [r4, #42]	@ 0x2a
 8001690:	b29b      	uxth	r3, r3
 8001692:	2b03      	cmp	r3, #3
 8001694:	f47f adf6 	bne.w	8001284 <HAL_I2C_EV_IRQHandler+0x38>
 8001698:	6822      	ldr	r2, [r4, #0]
 800169a:	6853      	ldr	r3, [r2, #4]
 800169c:	f423 6380 	bic.w	r3, r3, #1024	@ 0x400
 80016a0:	6053      	str	r3, [r2, #4]
 80016a2:	e5ef      	b.n	8001284 <HAL_I2C_EV_IRQHandler+0x38>
 80016a4:	6ae5      	ldr	r5, [r4, #44]	@ 0x2c
 80016a6:	2d02      	cmp	r5, #2
 80016a8:	f43f af73 	beq.w	8001592 <HAL_I2C_EV_IRQHandler+0x346>
 80016ac:	2a01      	cmp	r2, #1
 80016ae:	f63f af70 	bhi.w	8001592 <HAL_I2C_EV_IRQHandler+0x346>
 80016b2:	910b      	str	r1, [sp, #44]	@ 0x2c
 80016b4:	f246 11a8 	movw	r1, #25000	@ 0x61a8
 80016b8:	4a78      	ldr	r2, [pc, #480]	@ (800189c <HAL_I2C_EV_IRQHandler+0x650>)
 80016ba:	6812      	ldr	r2, [r2, #0]
 80016bc:	fbb2 f2f1 	udiv	r2, r2, r1
 80016c0:	eb02 0282 	add.w	r2, r2, r2, lsl #2
 80016c4:	920b      	str	r2, [sp, #44]	@ 0x2c
 80016c6:	9a0b      	ldr	r2, [sp, #44]	@ 0x2c
 80016c8:	3a01      	subs	r2, #1
 80016ca:	920b      	str	r2, [sp, #44]	@ 0x2c
 80016cc:	990b      	ldr	r1, [sp, #44]	@ 0x2c
 80016ce:	b9d1      	cbnz	r1, 8001706 <HAL_I2C_EV_IRQHandler+0x4ba>
 80016d0:	6c22      	ldr	r2, [r4, #64]	@ 0x40
 80016d2:	4620      	mov	r0, r4
 80016d4:	f042 0220 	orr.w	r2, r2, #32
 80016d8:	6422      	str	r2, [r4, #64]	@ 0x40
 80016da:	685a      	ldr	r2, [r3, #4]
 80016dc:	f422 62e0 	bic.w	r2, r2, #1792	@ 0x700
 80016e0:	605a      	str	r2, [r3, #4]
 80016e2:	691a      	ldr	r2, [r3, #16]
 80016e4:	6a63      	ldr	r3, [r4, #36]	@ 0x24
 80016e6:	701a      	strb	r2, [r3, #0]
 80016e8:	6a63      	ldr	r3, [r4, #36]	@ 0x24
 80016ea:	3301      	adds	r3, #1
 80016ec:	6263      	str	r3, [r4, #36]	@ 0x24
 80016ee:	8d63      	ldrh	r3, [r4, #42]	@ 0x2a
 80016f0:	3b01      	subs	r3, #1
 80016f2:	b29b      	uxth	r3, r3
 80016f4:	8563      	strh	r3, [r4, #42]	@ 0x2a
 80016f6:	2320      	movs	r3, #32
 80016f8:	f884 303d 	strb.w	r3, [r4, #61]	@ 0x3d
 80016fc:	f884 103e 	strb.w	r1, [r4, #62]	@ 0x3e
 8001700:	f7ff fc9a 	bl	8001038 <HAL_I2C_ErrorCallback>
 8001704:	e5be      	b.n	8001284 <HAL_I2C_EV_IRQHandler+0x38>
 8001706:	681a      	ldr	r2, [r3, #0]
 8001708:	f412 7200 	ands.w	r2, r2, #512	@ 0x200
 800170c:	d1db      	bne.n	80016c6 <HAL_I2C_EV_IRQHandler+0x47a>
 800170e:	6819      	ldr	r1, [r3, #0]
 8001710:	f421 6180 	bic.w	r1, r1, #1024	@ 0x400
 8001714:	6019      	str	r1, [r3, #0]
 8001716:	6859      	ldr	r1, [r3, #4]
 8001718:	f421 61e0 	bic.w	r1, r1, #1792	@ 0x700
 800171c:	6059      	str	r1, [r3, #4]
 800171e:	6919      	ldr	r1, [r3, #16]
 8001720:	6a63      	ldr	r3, [r4, #36]	@ 0x24
 8001722:	7019      	strb	r1, [r3, #0]
 8001724:	6a63      	ldr	r3, [r4, #36]	@ 0x24
 8001726:	3301      	adds	r3, #1
 8001728:	6263      	str	r3, [r4, #36]	@ 0x24
 800172a:	8d63      	ldrh	r3, [r4, #42]	@ 0x2a
 800172c:	3b01      	subs	r3, #1
 800172e:	b29b      	uxth	r3, r3
 8001730:	8563      	strh	r3, [r4, #42]	@ 0x2a
 8001732:	2320      	movs	r3, #32
 8001734:	f884 303d 	strb.w	r3, [r4, #61]	@ 0x3d
 8001738:	f894 303e 	ldrb.w	r3, [r4, #62]	@ 0x3e
 800173c:	f884 203e 	strb.w	r2, [r4, #62]	@ 0x3e
 8001740:	2b40      	cmp	r3, #64	@ 0x40
 8001742:	d104      	bne.n	800174e <HAL_I2C_EV_IRQHandler+0x502>
 8001744:	6322      	str	r2, [r4, #48]	@ 0x30
 8001746:	4620      	mov	r0, r4
 8001748:	f7ff fc75 	bl	8001036 <HAL_I2C_MemRxCpltCallback>
 800174c:	e59a      	b.n	8001284 <HAL_I2C_EV_IRQHandler+0x38>
 800174e:	2808      	cmp	r0, #8
 8001750:	d001      	beq.n	8001756 <HAL_I2C_EV_IRQHandler+0x50a>
 8001752:	2820      	cmp	r0, #32
 8001754:	d101      	bne.n	800175a <HAL_I2C_EV_IRQHandler+0x50e>
 8001756:	2300      	movs	r3, #0
 8001758:	e000      	b.n	800175c <HAL_I2C_EV_IRQHandler+0x510>
 800175a:	2312      	movs	r3, #18
 800175c:	4620      	mov	r0, r4
 800175e:	6323      	str	r3, [r4, #48]	@ 0x30
 8001760:	f7ff fc0b 	bl	8000f7a <HAL_I2C_MasterRxCpltCallback>
 8001764:	e58e      	b.n	8001284 <HAL_I2C_EV_IRQHandler+0x38>
 8001766:	2900      	cmp	r1, #0
 8001768:	f43f ad8c 	beq.w	8001284 <HAL_I2C_EV_IRQHandler+0x38>
 800176c:	0592      	lsls	r2, r2, #22
 800176e:	f57f ad89 	bpl.w	8001284 <HAL_I2C_EV_IRQHandler+0x38>
 8001772:	6ae2      	ldr	r2, [r4, #44]	@ 0x2c
 8001774:	8d60      	ldrh	r0, [r4, #42]	@ 0x2a
 8001776:	6a61      	ldr	r1, [r4, #36]	@ 0x24
 8001778:	b280      	uxth	r0, r0
 800177a:	2804      	cmp	r0, #4
 800177c:	d109      	bne.n	8001792 <HAL_I2C_EV_IRQHandler+0x546>
 800177e:	685a      	ldr	r2, [r3, #4]
 8001780:	f422 6280 	bic.w	r2, r2, #1024	@ 0x400
 8001784:	605a      	str	r2, [r3, #4]
 8001786:	691b      	ldr	r3, [r3, #16]
 8001788:	700b      	strb	r3, [r1, #0]
 800178a:	6a63      	ldr	r3, [r4, #36]	@ 0x24
 800178c:	3301      	adds	r3, #1
 800178e:	6263      	str	r3, [r4, #36]	@ 0x24
 8001790:	e723      	b.n	80015da <HAL_I2C_EV_IRQHandler+0x38e>
 8001792:	8d60      	ldrh	r0, [r4, #42]	@ 0x2a
 8001794:	b280      	uxth	r0, r0
 8001796:	2803      	cmp	r0, #3
 8001798:	d10c      	bne.n	80017b4 <HAL_I2C_EV_IRQHandler+0x568>
 800179a:	6858      	ldr	r0, [r3, #4]
 800179c:	2a04      	cmp	r2, #4
 800179e:	f420 6080 	bic.w	r0, r0, #1024	@ 0x400
 80017a2:	6058      	str	r0, [r3, #4]
 80017a4:	d0ef      	beq.n	8001786 <HAL_I2C_EV_IRQHandler+0x53a>
 80017a6:	2a02      	cmp	r2, #2
 80017a8:	d0ed      	beq.n	8001786 <HAL_I2C_EV_IRQHandler+0x53a>
 80017aa:	681a      	ldr	r2, [r3, #0]
 80017ac:	f422 6280 	bic.w	r2, r2, #1024	@ 0x400
 80017b0:	601a      	str	r2, [r3, #0]
 80017b2:	e7e8      	b.n	8001786 <HAL_I2C_EV_IRQHandler+0x53a>
 80017b4:	8d60      	ldrh	r0, [r4, #42]	@ 0x2a
 80017b6:	b280      	uxth	r0, r0
 80017b8:	2802      	cmp	r0, #2
 80017ba:	d1e4      	bne.n	8001786 <HAL_I2C_EV_IRQHandler+0x53a>
 80017bc:	2a04      	cmp	r2, #4
 80017be:	d033      	beq.n	8001828 <HAL_I2C_EV_IRQHandler+0x5dc>
 80017c0:	d807      	bhi.n	80017d2 <HAL_I2C_EV_IRQHandler+0x586>
 80017c2:	2a01      	cmp	r2, #1
 80017c4:	d007      	beq.n	80017d6 <HAL_I2C_EV_IRQHandler+0x58a>
 80017c6:	2a02      	cmp	r2, #2
 80017c8:	d02e      	beq.n	8001828 <HAL_I2C_EV_IRQHandler+0x5dc>
 80017ca:	6818      	ldr	r0, [r3, #0]
 80017cc:	f440 7000 	orr.w	r0, r0, #512	@ 0x200
 80017d0:	e004      	b.n	80017dc <HAL_I2C_EV_IRQHandler+0x590>
 80017d2:	2a10      	cmp	r2, #16
 80017d4:	d1f9      	bne.n	80017ca <HAL_I2C_EV_IRQHandler+0x57e>
 80017d6:	6818      	ldr	r0, [r3, #0]
 80017d8:	f420 6080 	bic.w	r0, r0, #1024	@ 0x400
 80017dc:	6018      	str	r0, [r3, #0]
 80017de:	691b      	ldr	r3, [r3, #16]
 80017e0:	700b      	strb	r3, [r1, #0]
 80017e2:	6a61      	ldr	r1, [r4, #36]	@ 0x24
 80017e4:	1c4b      	adds	r3, r1, #1
 80017e6:	6263      	str	r3, [r4, #36]	@ 0x24
 80017e8:	8d63      	ldrh	r3, [r4, #42]	@ 0x2a
 80017ea:	3b01      	subs	r3, #1
 80017ec:	b29b      	uxth	r3, r3
 80017ee:	8563      	strh	r3, [r4, #42]	@ 0x2a
 80017f0:	6823      	ldr	r3, [r4, #0]
 80017f2:	691b      	ldr	r3, [r3, #16]
 80017f4:	704b      	strb	r3, [r1, #1]
 80017f6:	6a63      	ldr	r3, [r4, #36]	@ 0x24
 80017f8:	6821      	ldr	r1, [r4, #0]
 80017fa:	3301      	adds	r3, #1
 80017fc:	6263      	str	r3, [r4, #36]	@ 0x24
 80017fe:	8d63      	ldrh	r3, [r4, #42]	@ 0x2a
 8001800:	3b01      	subs	r3, #1
 8001802:	b29b      	uxth	r3, r3
 8001804:	8563      	strh	r3, [r4, #42]	@ 0x2a
 8001806:	684b      	ldr	r3, [r1, #4]
 8001808:	f423 7340 	bic.w	r3, r3, #768	@ 0x300
 800180c:	604b      	str	r3, [r1, #4]
 800180e:	2320      	movs	r3, #32
 8001810:	f884 303d 	strb.w	r3, [r4, #61]	@ 0x3d
 8001814:	f894 303e 	ldrb.w	r3, [r4, #62]	@ 0x3e
 8001818:	2b40      	cmp	r3, #64	@ 0x40
 800181a:	f04f 0300 	mov.w	r3, #0
 800181e:	f884 303e 	strb.w	r3, [r4, #62]	@ 0x3e
 8001822:	d105      	bne.n	8001830 <HAL_I2C_EV_IRQHandler+0x5e4>
 8001824:	6323      	str	r3, [r4, #48]	@ 0x30
 8001826:	e78e      	b.n	8001746 <HAL_I2C_EV_IRQHandler+0x4fa>
 8001828:	6818      	ldr	r0, [r3, #0]
 800182a:	f440 6080 	orr.w	r0, r0, #1024	@ 0x400
 800182e:	e7d5      	b.n	80017dc <HAL_I2C_EV_IRQHandler+0x590>
 8001830:	2a08      	cmp	r2, #8
 8001832:	d090      	beq.n	8001756 <HAL_I2C_EV_IRQHandler+0x50a>
 8001834:	2a20      	cmp	r2, #32
 8001836:	e78d      	b.n	8001754 <HAL_I2C_EV_IRQHandler+0x508>
 8001838:	6c20      	ldr	r0, [r4, #64]	@ 0x40
 800183a:	b310      	cbz	r0, 8001882 <HAL_I2C_EV_IRQHandler+0x636>
 800183c:	2500      	movs	r5, #0
 800183e:	6958      	ldr	r0, [r3, #20]
 8001840:	0787      	lsls	r7, r0, #30
 8001842:	d52d      	bpl.n	80018a0 <HAL_I2C_EV_IRQHandler+0x654>
 8001844:	0596      	lsls	r6, r2, #22
 8001846:	d52b      	bpl.n	80018a0 <HAL_I2C_EV_IRQHandler+0x654>
 8001848:	6c22      	ldr	r2, [r4, #64]	@ 0x40
 800184a:	b102      	cbz	r2, 800184e <HAL_I2C_EV_IRQHandler+0x602>
 800184c:	699d      	ldr	r5, [r3, #24]
 800184e:	f894 203d 	ldrb.w	r2, [r4, #61]	@ 0x3d
 8001852:	f002 0228 	and.w	r2, r2, #40	@ 0x28
 8001856:	2a28      	cmp	r2, #40	@ 0x28
 8001858:	d116      	bne.n	8001888 <HAL_I2C_EV_IRQHandler+0x63c>
 800185a:	685a      	ldr	r2, [r3, #4]
 800185c:	062f      	lsls	r7, r5, #24
 800185e:	f422 6280 	bic.w	r2, r2, #1024	@ 0x400
 8001862:	605a      	str	r2, [r3, #4]
 8001864:	f04f 0300 	mov.w	r3, #0
 8001868:	f085 0104 	eor.w	r1, r5, #4
 800186c:	4620      	mov	r0, r4
 800186e:	bf54      	ite	pl
 8001870:	89a2      	ldrhpl	r2, [r4, #12]
 8001872:	8b22      	ldrhmi	r2, [r4, #24]
 8001874:	f3c1 0180 	ubfx	r1, r1, #2, #1
 8001878:	f884 303c 	strb.w	r3, [r4, #60]	@ 0x3c
 800187c:	f7ff fb80 	bl	8000f80 <HAL_I2C_AddrCallback>
 8001880:	e500      	b.n	8001284 <HAL_I2C_EV_IRQHandler+0x38>
 8001882:	699d      	ldr	r5, [r3, #24]
 8001884:	6958      	ldr	r0, [r3, #20]
 8001886:	e7db      	b.n	8001840 <HAL_I2C_EV_IRQHandler+0x5f4>
 8001888:	2200      	movs	r2, #0
 800188a:	920c      	str	r2, [sp, #48]	@ 0x30
 800188c:	6959      	ldr	r1, [r3, #20]
 800188e:	910c      	str	r1, [sp, #48]	@ 0x30
 8001890:	699b      	ldr	r3, [r3, #24]
 8001892:	f884 203c 	strb.w	r2, [r4, #60]	@ 0x3c
 8001896:	930c      	str	r3, [sp, #48]	@ 0x30
 8001898:	9b0c      	ldr	r3, [sp, #48]	@ 0x30
 800189a:	e4f3      	b.n	8001284 <HAL_I2C_EV_IRQHandler+0x38>
 800189c:	20000000 	.word	0x20000000
 80018a0:	06c6      	lsls	r6, r0, #27
 80018a2:	f140 80b1 	bpl.w	8001a08 <HAL_I2C_EV_IRQHandler+0x7bc>
 80018a6:	0595      	lsls	r5, r2, #22
 80018a8:	f140 80ae 	bpl.w	8001a08 <HAL_I2C_EV_IRQHandler+0x7bc>
 80018ac:	f894 503d 	ldrb.w	r5, [r4, #61]	@ 0x3d
 80018b0:	685a      	ldr	r2, [r3, #4]
 80018b2:	b2ed      	uxtb	r5, r5
 80018b4:	f422 62e0 	bic.w	r2, r2, #1792	@ 0x700
 80018b8:	605a      	str	r2, [r3, #4]
 80018ba:	2200      	movs	r2, #0
 80018bc:	920d      	str	r2, [sp, #52]	@ 0x34
 80018be:	695a      	ldr	r2, [r3, #20]
 80018c0:	920d      	str	r2, [sp, #52]	@ 0x34
 80018c2:	681a      	ldr	r2, [r3, #0]
 80018c4:	f042 0201 	orr.w	r2, r2, #1
 80018c8:	601a      	str	r2, [r3, #0]
 80018ca:	9a0d      	ldr	r2, [sp, #52]	@ 0x34
 80018cc:	681a      	ldr	r2, [r3, #0]
 80018ce:	f422 6280 	bic.w	r2, r2, #1024	@ 0x400
 80018d2:	601a      	str	r2, [r3, #0]
 80018d4:	685a      	ldr	r2, [r3, #4]
 80018d6:	0510      	lsls	r0, r2, #20
 80018d8:	d520      	bpl.n	800191c <HAL_I2C_EV_IRQHandler+0x6d0>
 80018da:	f005 02f7 	and.w	r2, r5, #247	@ 0xf7
 80018de:	2a22      	cmp	r2, #34	@ 0x22
 80018e0:	d14a      	bne.n	8001978 <HAL_I2C_EV_IRQHandler+0x72c>
 80018e2:	6ba0      	ldr	r0, [r4, #56]	@ 0x38
 80018e4:	6802      	ldr	r2, [r0, #0]
 80018e6:	6852      	ldr	r2, [r2, #4]
 80018e8:	b292      	uxth	r2, r2
 80018ea:	8562      	strh	r2, [r4, #42]	@ 0x2a
 80018ec:	8d62      	ldrh	r2, [r4, #42]	@ 0x2a
 80018ee:	b292      	uxth	r2, r2
 80018f0:	b11a      	cbz	r2, 80018fa <HAL_I2C_EV_IRQHandler+0x6ae>
 80018f2:	6c22      	ldr	r2, [r4, #64]	@ 0x40
 80018f4:	f042 0204 	orr.w	r2, r2, #4
 80018f8:	6422      	str	r2, [r4, #64]	@ 0x40
 80018fa:	685a      	ldr	r2, [r3, #4]
 80018fc:	f422 6200 	bic.w	r2, r2, #2048	@ 0x800
 8001900:	605a      	str	r2, [r3, #4]
 8001902:	f7ff f99d 	bl	8000c40 <HAL_DMA_GetState>
 8001906:	2801      	cmp	r0, #1
 8001908:	d008      	beq.n	800191c <HAL_I2C_EV_IRQHandler+0x6d0>
 800190a:	6ba0      	ldr	r0, [r4, #56]	@ 0x38
 800190c:	4b79      	ldr	r3, [pc, #484]	@ (8001af4 <HAL_I2C_EV_IRQHandler+0x8a8>)
 800190e:	6343      	str	r3, [r0, #52]	@ 0x34
 8001910:	f7ff f8bc 	bl	8000a8c <HAL_DMA_Abort_IT>
 8001914:	b110      	cbz	r0, 800191c <HAL_I2C_EV_IRQHandler+0x6d0>
 8001916:	6ba0      	ldr	r0, [r4, #56]	@ 0x38
 8001918:	6b43      	ldr	r3, [r0, #52]	@ 0x34
 800191a:	4798      	blx	r3
 800191c:	8d63      	ldrh	r3, [r4, #42]	@ 0x2a
 800191e:	b29b      	uxth	r3, r3
 8001920:	b313      	cbz	r3, 8001968 <HAL_I2C_EV_IRQHandler+0x71c>
 8001922:	6823      	ldr	r3, [r4, #0]
 8001924:	695a      	ldr	r2, [r3, #20]
 8001926:	0751      	lsls	r1, r2, #29
 8001928:	d509      	bpl.n	800193e <HAL_I2C_EV_IRQHandler+0x6f2>
 800192a:	691a      	ldr	r2, [r3, #16]
 800192c:	6a63      	ldr	r3, [r4, #36]	@ 0x24
 800192e:	701a      	strb	r2, [r3, #0]
 8001930:	6a63      	ldr	r3, [r4, #36]	@ 0x24
 8001932:	3301      	adds	r3, #1
 8001934:	6263      	str	r3, [r4, #36]	@ 0x24
 8001936:	8d63      	ldrh	r3, [r4, #42]	@ 0x2a
 8001938:	3b01      	subs	r3, #1
 800193a:	b29b      	uxth	r3, r3
 800193c:	8563      	strh	r3, [r4, #42]	@ 0x2a
 800193e:	6823      	ldr	r3, [r4, #0]
 8001940:	695a      	ldr	r2, [r3, #20]
 8001942:	0652      	lsls	r2, r2, #25
 8001944:	d509      	bpl.n	800195a <HAL_I2C_EV_IRQHandler+0x70e>
 8001946:	691a      	ldr	r2, [r3, #16]
 8001948:	6a63      	ldr	r3, [r4, #36]	@ 0x24
 800194a:	701a      	strb	r2, [r3, #0]
 800194c:	6a63      	ldr	r3, [r4, #36]	@ 0x24
 800194e:	3301      	adds	r3, #1
 8001950:	6263      	str	r3, [r4, #36]	@ 0x24
 8001952:	8d63      	ldrh	r3, [r4, #42]	@ 0x2a
 8001954:	3b01      	subs	r3, #1
 8001956:	b29b      	uxth	r3, r3
 8001958:	8563      	strh	r3, [r4, #42]	@ 0x2a
 800195a:	8d63      	ldrh	r3, [r4, #42]	@ 0x2a
 800195c:	b29b      	uxth	r3, r3
 800195e:	b11b      	cbz	r3, 8001968 <HAL_I2C_EV_IRQHandler+0x71c>
 8001960:	6c23      	ldr	r3, [r4, #64]	@ 0x40
 8001962:	f043 0304 	orr.w	r3, r3, #4
 8001966:	6423      	str	r3, [r4, #64]	@ 0x40
 8001968:	6c23      	ldr	r3, [r4, #64]	@ 0x40
 800196a:	b313      	cbz	r3, 80019b2 <HAL_I2C_EV_IRQHandler+0x766>
 800196c:	4620      	mov	r0, r4
 800196e:	b00f      	add	sp, #60	@ 0x3c
 8001970:	e8bd 40f0 	ldmia.w	sp!, {r4, r5, r6, r7, lr}
 8001974:	f7ff bbc2 	b.w	80010fc <I2C_ITError>
 8001978:	6b60      	ldr	r0, [r4, #52]	@ 0x34
 800197a:	6802      	ldr	r2, [r0, #0]
 800197c:	6852      	ldr	r2, [r2, #4]
 800197e:	b292      	uxth	r2, r2
 8001980:	8562      	strh	r2, [r4, #42]	@ 0x2a
 8001982:	8d62      	ldrh	r2, [r4, #42]	@ 0x2a
 8001984:	b292      	uxth	r2, r2
 8001986:	b11a      	cbz	r2, 8001990 <HAL_I2C_EV_IRQHandler+0x744>
 8001988:	6c22      	ldr	r2, [r4, #64]	@ 0x40
 800198a:	f042 0204 	orr.w	r2, r2, #4
 800198e:	6422      	str	r2, [r4, #64]	@ 0x40
 8001990:	685a      	ldr	r2, [r3, #4]
 8001992:	f422 6200 	bic.w	r2, r2, #2048	@ 0x800
 8001996:	605a      	str	r2, [r3, #4]
 8001998:	f7ff f952 	bl	8000c40 <HAL_DMA_GetState>
 800199c:	2801      	cmp	r0, #1
 800199e:	d0bd      	beq.n	800191c <HAL_I2C_EV_IRQHandler+0x6d0>
 80019a0:	6b60      	ldr	r0, [r4, #52]	@ 0x34
 80019a2:	4b54      	ldr	r3, [pc, #336]	@ (8001af4 <HAL_I2C_EV_IRQHandler+0x8a8>)
 80019a4:	6343      	str	r3, [r0, #52]	@ 0x34
 80019a6:	f7ff f871 	bl	8000a8c <HAL_DMA_Abort_IT>
 80019aa:	2800      	cmp	r0, #0
 80019ac:	d0b6      	beq.n	800191c <HAL_I2C_EV_IRQHandler+0x6d0>
 80019ae:	6b60      	ldr	r0, [r4, #52]	@ 0x34
 80019b0:	e7b2      	b.n	8001918 <HAL_I2C_EV_IRQHandler+0x6cc>
 80019b2:	2d2a      	cmp	r5, #42	@ 0x2a
 80019b4:	d106      	bne.n	80019c4 <HAL_I2C_EV_IRQHandler+0x778>
 80019b6:	6323      	str	r3, [r4, #48]	@ 0x30
 80019b8:	2328      	movs	r3, #40	@ 0x28
 80019ba:	4620      	mov	r0, r4
 80019bc:	f884 303d 	strb.w	r3, [r4, #61]	@ 0x3d
 80019c0:	f7ff fadd 	bl	8000f7e <HAL_I2C_SlaveRxCpltCallback>
 80019c4:	f894 303d 	ldrb.w	r3, [r4, #61]	@ 0x3d
 80019c8:	2b28      	cmp	r3, #40	@ 0x28
 80019ca:	d10c      	bne.n	80019e6 <HAL_I2C_EV_IRQHandler+0x79a>
 80019cc:	4b4a      	ldr	r3, [pc, #296]	@ (8001af8 <HAL_I2C_EV_IRQHandler+0x8ac>)
 80019ce:	2220      	movs	r2, #32
 80019d0:	62e3      	str	r3, [r4, #44]	@ 0x2c
 80019d2:	2300      	movs	r3, #0
 80019d4:	4620      	mov	r0, r4
 80019d6:	6323      	str	r3, [r4, #48]	@ 0x30
 80019d8:	f884 203d 	strb.w	r2, [r4, #61]	@ 0x3d
 80019dc:	f884 303e 	strb.w	r3, [r4, #62]	@ 0x3e
 80019e0:	f7ff facf 	bl	8000f82 <HAL_I2C_ListenCpltCallback>
 80019e4:	e44e      	b.n	8001284 <HAL_I2C_EV_IRQHandler+0x38>
 80019e6:	6b23      	ldr	r3, [r4, #48]	@ 0x30
 80019e8:	2b22      	cmp	r3, #34	@ 0x22
 80019ea:	d002      	beq.n	80019f2 <HAL_I2C_EV_IRQHandler+0x7a6>
 80019ec:	2d22      	cmp	r5, #34	@ 0x22
 80019ee:	f47f ac49 	bne.w	8001284 <HAL_I2C_EV_IRQHandler+0x38>
 80019f2:	2300      	movs	r3, #0
 80019f4:	2220      	movs	r2, #32
 80019f6:	6323      	str	r3, [r4, #48]	@ 0x30
 80019f8:	f884 203d 	strb.w	r2, [r4, #61]	@ 0x3d
 80019fc:	f884 303e 	strb.w	r3, [r4, #62]	@ 0x3e
 8001a00:	4620      	mov	r0, r4
 8001a02:	f7ff fabc 	bl	8000f7e <HAL_I2C_SlaveRxCpltCallback>
 8001a06:	e43d      	b.n	8001284 <HAL_I2C_EV_IRQHandler+0x38>
 8001a08:	f001 01f7 	and.w	r1, r1, #247	@ 0xf7
 8001a0c:	2921      	cmp	r1, #33	@ 0x21
 8001a0e:	f000 0504 	and.w	r5, r0, #4
 8001a12:	d135      	bne.n	8001a80 <HAL_I2C_EV_IRQHandler+0x834>
 8001a14:	0607      	lsls	r7, r0, #24
 8001a16:	d527      	bpl.n	8001a68 <HAL_I2C_EV_IRQHandler+0x81c>
 8001a18:	0556      	lsls	r6, r2, #21
 8001a1a:	d525      	bpl.n	8001a68 <HAL_I2C_EV_IRQHandler+0x81c>
 8001a1c:	bb3d      	cbnz	r5, 8001a6e <HAL_I2C_EV_IRQHandler+0x822>
 8001a1e:	f894 003d 	ldrb.w	r0, [r4, #61]	@ 0x3d
 8001a22:	8d62      	ldrh	r2, [r4, #42]	@ 0x2a
 8001a24:	b2c0      	uxtb	r0, r0
 8001a26:	b292      	uxth	r2, r2
 8001a28:	2a00      	cmp	r2, #0
 8001a2a:	f43f ac2b 	beq.w	8001284 <HAL_I2C_EV_IRQHandler+0x38>
 8001a2e:	6a62      	ldr	r2, [r4, #36]	@ 0x24
 8001a30:	f812 5b01 	ldrb.w	r5, [r2], #1
 8001a34:	611d      	str	r5, [r3, #16]
 8001a36:	6262      	str	r2, [r4, #36]	@ 0x24
 8001a38:	8d62      	ldrh	r2, [r4, #42]	@ 0x2a
 8001a3a:	3a01      	subs	r2, #1
 8001a3c:	b292      	uxth	r2, r2
 8001a3e:	8562      	strh	r2, [r4, #42]	@ 0x2a
 8001a40:	8d62      	ldrh	r2, [r4, #42]	@ 0x2a
 8001a42:	b292      	uxth	r2, r2
 8001a44:	2a00      	cmp	r2, #0
 8001a46:	f47f ac1d 	bne.w	8001284 <HAL_I2C_EV_IRQHandler+0x38>
 8001a4a:	2829      	cmp	r0, #41	@ 0x29
 8001a4c:	f47f ac1a 	bne.w	8001284 <HAL_I2C_EV_IRQHandler+0x38>
 8001a50:	685a      	ldr	r2, [r3, #4]
 8001a52:	4620      	mov	r0, r4
 8001a54:	f422 6280 	bic.w	r2, r2, #1024	@ 0x400
 8001a58:	605a      	str	r2, [r3, #4]
 8001a5a:	2328      	movs	r3, #40	@ 0x28
 8001a5c:	6321      	str	r1, [r4, #48]	@ 0x30
 8001a5e:	f884 303d 	strb.w	r3, [r4, #61]	@ 0x3d
 8001a62:	f7ff fa8b 	bl	8000f7c <HAL_I2C_SlaveTxCpltCallback>
 8001a66:	e40d      	b.n	8001284 <HAL_I2C_EV_IRQHandler+0x38>
 8001a68:	2d00      	cmp	r5, #0
 8001a6a:	f43f ac0b 	beq.w	8001284 <HAL_I2C_EV_IRQHandler+0x38>
 8001a6e:	0595      	lsls	r5, r2, #22
 8001a70:	f57f ac08 	bpl.w	8001284 <HAL_I2C_EV_IRQHandler+0x38>
 8001a74:	8d62      	ldrh	r2, [r4, #42]	@ 0x2a
 8001a76:	b292      	uxth	r2, r2
 8001a78:	2a00      	cmp	r2, #0
 8001a7a:	f43f ac03 	beq.w	8001284 <HAL_I2C_EV_IRQHandler+0x38>
 8001a7e:	e5a7      	b.n	80015d0 <HAL_I2C_EV_IRQHandler+0x384>
 8001a80:	0640      	lsls	r0, r0, #25
 8001a82:	d527      	bpl.n	8001ad4 <HAL_I2C_EV_IRQHandler+0x888>
 8001a84:	0551      	lsls	r1, r2, #21
 8001a86:	d525      	bpl.n	8001ad4 <HAL_I2C_EV_IRQHandler+0x888>
 8001a88:	bb3d      	cbnz	r5, 8001ada <HAL_I2C_EV_IRQHandler+0x88e>
 8001a8a:	f894 203d 	ldrb.w	r2, [r4, #61]	@ 0x3d
 8001a8e:	8d61      	ldrh	r1, [r4, #42]	@ 0x2a
 8001a90:	b2d2      	uxtb	r2, r2
 8001a92:	b289      	uxth	r1, r1
 8001a94:	2900      	cmp	r1, #0
 8001a96:	f43f abf5 	beq.w	8001284 <HAL_I2C_EV_IRQHandler+0x38>
 8001a9a:	6919      	ldr	r1, [r3, #16]
 8001a9c:	6a63      	ldr	r3, [r4, #36]	@ 0x24
 8001a9e:	7019      	strb	r1, [r3, #0]
 8001aa0:	6a63      	ldr	r3, [r4, #36]	@ 0x24
 8001aa2:	3301      	adds	r3, #1
 8001aa4:	6263      	str	r3, [r4, #36]	@ 0x24
 8001aa6:	8d63      	ldrh	r3, [r4, #42]	@ 0x2a
 8001aa8:	3b01      	subs	r3, #1
 8001aaa:	b29b      	uxth	r3, r3
 8001aac:	8563      	strh	r3, [r4, #42]	@ 0x2a
 8001aae:	8d63      	ldrh	r3, [r4, #42]	@ 0x2a
 8001ab0:	b29b      	uxth	r3, r3
 8001ab2:	2b00      	cmp	r3, #0
 8001ab4:	f47f abe6 	bne.w	8001284 <HAL_I2C_EV_IRQHandler+0x38>
 8001ab8:	2a2a      	cmp	r2, #42	@ 0x2a
 8001aba:	f47f abe3 	bne.w	8001284 <HAL_I2C_EV_IRQHandler+0x38>
 8001abe:	6822      	ldr	r2, [r4, #0]
 8001ac0:	6853      	ldr	r3, [r2, #4]
 8001ac2:	f423 6380 	bic.w	r3, r3, #1024	@ 0x400
 8001ac6:	6053      	str	r3, [r2, #4]
 8001ac8:	2322      	movs	r3, #34	@ 0x22
 8001aca:	6323      	str	r3, [r4, #48]	@ 0x30
 8001acc:	2328      	movs	r3, #40	@ 0x28
 8001ace:	f884 303d 	strb.w	r3, [r4, #61]	@ 0x3d
 8001ad2:	e795      	b.n	8001a00 <HAL_I2C_EV_IRQHandler+0x7b4>
 8001ad4:	2d00      	cmp	r5, #0
 8001ad6:	f43f abd5 	beq.w	8001284 <HAL_I2C_EV_IRQHandler+0x38>
 8001ada:	0592      	lsls	r2, r2, #22
 8001adc:	f57f abd2 	bpl.w	8001284 <HAL_I2C_EV_IRQHandler+0x38>
 8001ae0:	8d62      	ldrh	r2, [r4, #42]	@ 0x2a
 8001ae2:	b292      	uxth	r2, r2
 8001ae4:	2a00      	cmp	r2, #0
 8001ae6:	f43f abcd 	beq.w	8001284 <HAL_I2C_EV_IRQHandler+0x38>
 8001aea:	691a      	ldr	r2, [r3, #16]
 8001aec:	6a63      	ldr	r3, [r4, #36]	@ 0x24
 8001aee:	701a      	strb	r2, [r3, #0]
 8001af0:	e64b      	b.n	800178a <HAL_I2C_EV_IRQHandler+0x53e>
 8001af2:	bf00      	nop
 8001af4:	0800103d 	.word	0x0800103d
 8001af8:	ffff0000 	.word	0xffff0000

08001afc <HAL_I2C_ER_IRQHandler>:
 8001afc:	b5f8      	push	{r3, r4, r5, r6, r7, lr}
 8001afe:	6803      	ldr	r3, [r0, #0]
 8001b00:	4604      	mov	r4, r0
 8001b02:	695f      	ldr	r7, [r3, #20]
 8001b04:	685e      	ldr	r6, [r3, #4]
 8001b06:	f890 203e 	ldrb.w	r2, [r0, #62]	@ 0x3e
 8001b0a:	f417 7580 	ands.w	r5, r7, #256	@ 0x100
 8001b0e:	b2d2      	uxtb	r2, r2
 8001b10:	d00a      	beq.n	8001b28 <HAL_I2C_ER_IRQHandler+0x2c>
 8001b12:	f416 7580 	ands.w	r5, r6, #256	@ 0x100
 8001b16:	d007      	beq.n	8001b28 <HAL_I2C_ER_IRQHandler+0x2c>
 8001b18:	f46f 7180 	mvn.w	r1, #256	@ 0x100
 8001b1c:	2501      	movs	r5, #1
 8001b1e:	6159      	str	r1, [r3, #20]
 8001b20:	6819      	ldr	r1, [r3, #0]
 8001b22:	f441 4100 	orr.w	r1, r1, #32768	@ 0x8000
 8001b26:	6019      	str	r1, [r3, #0]
 8001b28:	05b8      	lsls	r0, r7, #22
 8001b2a:	d506      	bpl.n	8001b3a <HAL_I2C_ER_IRQHandler+0x3e>
 8001b2c:	05f1      	lsls	r1, r6, #23
 8001b2e:	bf42      	ittt	mi
 8001b30:	f46f 7100 	mvnmi.w	r1, #512	@ 0x200
 8001b34:	f045 0502 	orrmi.w	r5, r5, #2
 8001b38:	6159      	strmi	r1, [r3, #20]
 8001b3a:	0578      	lsls	r0, r7, #21
 8001b3c:	d536      	bpl.n	8001bac <HAL_I2C_ER_IRQHandler+0xb0>
 8001b3e:	05f1      	lsls	r1, r6, #23
 8001b40:	d534      	bpl.n	8001bac <HAL_I2C_ER_IRQHandler+0xb0>
 8001b42:	8d60      	ldrh	r0, [r4, #42]	@ 0x2a
 8001b44:	f894 103d 	ldrb.w	r1, [r4, #61]	@ 0x3d
 8001b48:	2a20      	cmp	r2, #32
 8001b4a:	f8d4 c030 	ldr.w	ip, [r4, #48]	@ 0x30
 8001b4e:	b280      	uxth	r0, r0
 8001b50:	b2c9      	uxtb	r1, r1
 8001b52:	d15f      	bne.n	8001c14 <HAL_I2C_ER_IRQHandler+0x118>
 8001b54:	2800      	cmp	r0, #0
 8001b56:	d15d      	bne.n	8001c14 <HAL_I2C_ER_IRQHandler+0x118>
 8001b58:	f001 00f7 	and.w	r0, r1, #247	@ 0xf7
 8001b5c:	2821      	cmp	r0, #33	@ 0x21
 8001b5e:	d004      	beq.n	8001b6a <HAL_I2C_ER_IRQHandler+0x6e>
 8001b60:	2928      	cmp	r1, #40	@ 0x28
 8001b62:	d157      	bne.n	8001c14 <HAL_I2C_ER_IRQHandler+0x118>
 8001b64:	f1bc 0f21 	cmp.w	ip, #33	@ 0x21
 8001b68:	d154      	bne.n	8001c14 <HAL_I2C_ER_IRQHandler+0x118>
 8001b6a:	f894 203d 	ldrb.w	r2, [r4, #61]	@ 0x3d
 8001b6e:	6ae1      	ldr	r1, [r4, #44]	@ 0x2c
 8001b70:	b2d2      	uxtb	r2, r2
 8001b72:	2908      	cmp	r1, #8
 8001b74:	d001      	beq.n	8001b7a <HAL_I2C_ER_IRQHandler+0x7e>
 8001b76:	2920      	cmp	r1, #32
 8001b78:	d12a      	bne.n	8001bd0 <HAL_I2C_ER_IRQHandler+0xd4>
 8001b7a:	2a28      	cmp	r2, #40	@ 0x28
 8001b7c:	d128      	bne.n	8001bd0 <HAL_I2C_ER_IRQHandler+0xd4>
 8001b7e:	4a2e      	ldr	r2, [pc, #184]	@ (8001c38 <HAL_I2C_ER_IRQHandler+0x13c>)
 8001b80:	4620      	mov	r0, r4
 8001b82:	62e2      	str	r2, [r4, #44]	@ 0x2c
 8001b84:	685a      	ldr	r2, [r3, #4]
 8001b86:	f422 62e0 	bic.w	r2, r2, #1792	@ 0x700
 8001b8a:	605a      	str	r2, [r3, #4]
 8001b8c:	f46f 6280 	mvn.w	r2, #1024	@ 0x400
 8001b90:	615a      	str	r2, [r3, #20]
 8001b92:	681a      	ldr	r2, [r3, #0]
 8001b94:	f422 6280 	bic.w	r2, r2, #1024	@ 0x400
 8001b98:	601a      	str	r2, [r3, #0]
 8001b9a:	2300      	movs	r3, #0
 8001b9c:	2220      	movs	r2, #32
 8001b9e:	6323      	str	r3, [r4, #48]	@ 0x30
 8001ba0:	f884 203d 	strb.w	r2, [r4, #61]	@ 0x3d
 8001ba4:	f884 303e 	strb.w	r3, [r4, #62]	@ 0x3e
 8001ba8:	f7ff f9eb 	bl	8000f82 <HAL_I2C_ListenCpltCallback>
 8001bac:	053a      	lsls	r2, r7, #20
 8001bae:	d53f      	bpl.n	8001c30 <HAL_I2C_ER_IRQHandler+0x134>
 8001bb0:	05f3      	lsls	r3, r6, #23
 8001bb2:	d53d      	bpl.n	8001c30 <HAL_I2C_ER_IRQHandler+0x134>
 8001bb4:	f46f 6200 	mvn.w	r2, #2048	@ 0x800
 8001bb8:	6823      	ldr	r3, [r4, #0]
 8001bba:	f045 0508 	orr.w	r5, r5, #8
 8001bbe:	615a      	str	r2, [r3, #20]
 8001bc0:	6c23      	ldr	r3, [r4, #64]	@ 0x40
 8001bc2:	4620      	mov	r0, r4
 8001bc4:	432b      	orrs	r3, r5
 8001bc6:	6423      	str	r3, [r4, #64]	@ 0x40
 8001bc8:	e8bd 40f8 	ldmia.w	sp!, {r3, r4, r5, r6, r7, lr}
 8001bcc:	f7ff ba96 	b.w	80010fc <I2C_ITError>
 8001bd0:	2a21      	cmp	r2, #33	@ 0x21
 8001bd2:	d11b      	bne.n	8001c0c <HAL_I2C_ER_IRQHandler+0x110>
 8001bd4:	4918      	ldr	r1, [pc, #96]	@ (8001c38 <HAL_I2C_ER_IRQHandler+0x13c>)
 8001bd6:	62e1      	str	r1, [r4, #44]	@ 0x2c
 8001bd8:	6322      	str	r2, [r4, #48]	@ 0x30
 8001bda:	2100      	movs	r1, #0
 8001bdc:	2220      	movs	r2, #32
 8001bde:	f884 203d 	strb.w	r2, [r4, #61]	@ 0x3d
 8001be2:	f884 103e 	strb.w	r1, [r4, #62]	@ 0x3e
 8001be6:	685a      	ldr	r2, [r3, #4]
 8001be8:	f422 62e0 	bic.w	r2, r2, #1792	@ 0x700
 8001bec:	605a      	str	r2, [r3, #4]
 8001bee:	f46f 6280 	mvn.w	r2, #1024	@ 0x400
 8001bf2:	615a      	str	r2, [r3, #20]
 8001bf4:	681a      	ldr	r2, [r3, #0]
 8001bf6:	f422 6280 	bic.w	r2, r2, #1024	@ 0x400
 8001bfa:	601a      	str	r2, [r3, #0]
 8001bfc:	695a      	ldr	r2, [r3, #20]
 8001bfe:	0610      	lsls	r0, r2, #24
 8001c00:	bf48      	it	mi
 8001c02:	6119      	strmi	r1, [r3, #16]
 8001c04:	4620      	mov	r0, r4
 8001c06:	f7ff f9b9 	bl	8000f7c <HAL_I2C_SlaveTxCpltCallback>
 8001c0a:	e7cf      	b.n	8001bac <HAL_I2C_ER_IRQHandler+0xb0>
 8001c0c:	f46f 6280 	mvn.w	r2, #1024	@ 0x400
 8001c10:	615a      	str	r2, [r3, #20]
 8001c12:	e7cb      	b.n	8001bac <HAL_I2C_ER_IRQHandler+0xb0>
 8001c14:	f46f 6180 	mvn.w	r1, #1024	@ 0x400
 8001c18:	2a10      	cmp	r2, #16
 8001c1a:	6159      	str	r1, [r3, #20]
 8001c1c:	f045 0504 	orr.w	r5, r5, #4
 8001c20:	d001      	beq.n	8001c26 <HAL_I2C_ER_IRQHandler+0x12a>
 8001c22:	2a40      	cmp	r2, #64	@ 0x40
 8001c24:	d1c2      	bne.n	8001bac <HAL_I2C_ER_IRQHandler+0xb0>
 8001c26:	681a      	ldr	r2, [r3, #0]
 8001c28:	f442 7200 	orr.w	r2, r2, #512	@ 0x200
 8001c2c:	601a      	str	r2, [r3, #0]
 8001c2e:	e7bd      	b.n	8001bac <HAL_I2C_ER_IRQHandler+0xb0>
 8001c30:	2d00      	cmp	r5, #0
 8001c32:	d1c5      	bne.n	8001bc0 <HAL_I2C_ER_IRQHandler+0xc4>
 8001c34:	bdf8      	pop	{r3, r4, r5, r6, r7, pc}
 8001c36:	bf00      	nop
 8001c38:	ffff0000 	.word	0xffff0000

08001c3c <HAL_RCC_OscConfig>:
 8001c3c:	e92d 41f3 	stmdb	sp!, {r0, r1, r4, r5, r6, r7, r8, lr}
 8001c40:	4605      	mov	r5, r0
 8001c42:	b338      	cbz	r0, 8001c94 <HAL_RCC_OscConfig+0x58>
 8001c44:	6803      	ldr	r3, [r0, #0]
 8001c46:	07db      	lsls	r3, r3, #31
 8001c48:	d410      	bmi.n	8001c6c <HAL_RCC_OscConfig+0x30>
 8001c4a:	682b      	ldr	r3, [r5, #0]
 8001c4c:	079f      	lsls	r7, r3, #30
 8001c4e:	d45e      	bmi.n	8001d0e <HAL_RCC_OscConfig+0xd2>
 8001c50:	682b      	ldr	r3, [r5, #0]
 8001c52:	0719      	lsls	r1, r3, #28
 8001c54:	f100 8095 	bmi.w	8001d82 <HAL_RCC_OscConfig+0x146>
 8001c58:	682b      	ldr	r3, [r5, #0]
 8001c5a:	075a      	lsls	r2, r3, #29
 8001c5c:	f100 80c1 	bmi.w	8001de2 <HAL_RCC_OscConfig+0x1a6>
 8001c60:	69eb      	ldr	r3, [r5, #28]
 8001c62:	2b00      	cmp	r3, #0
 8001c64:	f040 812c 	bne.w	8001ec0 <HAL_RCC_OscConfig+0x284>
 8001c68:	2000      	movs	r0, #0
 8001c6a:	e029      	b.n	8001cc0 <HAL_RCC_OscConfig+0x84>
 8001c6c:	4c90      	ldr	r4, [pc, #576]	@ (8001eb0 <HAL_RCC_OscConfig+0x274>)
 8001c6e:	6863      	ldr	r3, [r4, #4]
 8001c70:	f003 030c 	and.w	r3, r3, #12
 8001c74:	2b04      	cmp	r3, #4
 8001c76:	d007      	beq.n	8001c88 <HAL_RCC_OscConfig+0x4c>
 8001c78:	6863      	ldr	r3, [r4, #4]
 8001c7a:	f003 030c 	and.w	r3, r3, #12
 8001c7e:	2b08      	cmp	r3, #8
 8001c80:	d10a      	bne.n	8001c98 <HAL_RCC_OscConfig+0x5c>
 8001c82:	6863      	ldr	r3, [r4, #4]
 8001c84:	03de      	lsls	r6, r3, #15
 8001c86:	d507      	bpl.n	8001c98 <HAL_RCC_OscConfig+0x5c>
 8001c88:	6823      	ldr	r3, [r4, #0]
 8001c8a:	039c      	lsls	r4, r3, #14
 8001c8c:	d5dd      	bpl.n	8001c4a <HAL_RCC_OscConfig+0xe>
 8001c8e:	686b      	ldr	r3, [r5, #4]
 8001c90:	2b00      	cmp	r3, #0
 8001c92:	d1da      	bne.n	8001c4a <HAL_RCC_OscConfig+0xe>
 8001c94:	2001      	movs	r0, #1
 8001c96:	e013      	b.n	8001cc0 <HAL_RCC_OscConfig+0x84>
 8001c98:	686b      	ldr	r3, [r5, #4]
 8001c9a:	f5b3 3f80 	cmp.w	r3, #65536	@ 0x10000
 8001c9e:	d112      	bne.n	8001cc6 <HAL_RCC_OscConfig+0x8a>
 8001ca0:	6823      	ldr	r3, [r4, #0]
 8001ca2:	f443 3380 	orr.w	r3, r3, #65536	@ 0x10000
 8001ca6:	6023      	str	r3, [r4, #0]
 8001ca8:	f7fe fdfa 	bl	80008a0 <HAL_GetTick>
 8001cac:	4606      	mov	r6, r0
 8001cae:	6823      	ldr	r3, [r4, #0]
 8001cb0:	0398      	lsls	r0, r3, #14
 8001cb2:	d4ca      	bmi.n	8001c4a <HAL_RCC_OscConfig+0xe>
 8001cb4:	f7fe fdf4 	bl	80008a0 <HAL_GetTick>
 8001cb8:	1b80      	subs	r0, r0, r6
 8001cba:	2864      	cmp	r0, #100	@ 0x64
 8001cbc:	d9f7      	bls.n	8001cae <HAL_RCC_OscConfig+0x72>
 8001cbe:	2003      	movs	r0, #3
 8001cc0:	b002      	add	sp, #8
 8001cc2:	e8bd 81f0 	ldmia.w	sp!, {r4, r5, r6, r7, r8, pc}
 8001cc6:	b99b      	cbnz	r3, 8001cf0 <HAL_RCC_OscConfig+0xb4>
 8001cc8:	6823      	ldr	r3, [r4, #0]
 8001cca:	f423 3380 	bic.w	r3, r3, #65536	@ 0x10000
 8001cce:	6023      	str	r3, [r4, #0]
 8001cd0:	6823      	ldr	r3, [r4, #0]
 8001cd2:	f423 2380 	bic.w	r3, r3, #262144	@ 0x40000
 8001cd6:	6023      	str	r3, [r4, #0]
 8001cd8:	f7fe fde2 	bl	80008a0 <HAL_GetTick>
 8001cdc:	4606      	mov	r6, r0
 8001cde:	6823      	ldr	r3, [r4, #0]
 8001ce0:	0399      	lsls	r1, r3, #14
 8001ce2:	d5b2      	bpl.n	8001c4a <HAL_RCC_OscConfig+0xe>
 8001ce4:	f7fe fddc 	bl	80008a0 <HAL_GetTick>
 8001ce8:	1b80      	subs	r0, r0, r6
 8001cea:	2864      	cmp	r0, #100	@ 0x64
 8001cec:	d9f7      	bls.n	8001cde <HAL_RCC_OscConfig+0xa2>
 8001cee:	e7e6      	b.n	8001cbe <HAL_RCC_OscConfig+0x82>
 8001cf0:	f5b3 2fa0 	cmp.w	r3, #327680	@ 0x50000
 8001cf4:	6823      	ldr	r3, [r4, #0]
 8001cf6:	d103      	bne.n	8001d00 <HAL_RCC_OscConfig+0xc4>
 8001cf8:	f443 2380 	orr.w	r3, r3, #262144	@ 0x40000
 8001cfc:	6023      	str	r3, [r4, #0]
 8001cfe:	e7cf      	b.n	8001ca0 <HAL_RCC_OscConfig+0x64>
 8001d00:	f423 3380 	bic.w	r3, r3, #65536	@ 0x10000
 8001d04:	6023      	str	r3, [r4, #0]
 8001d06:	6823      	ldr	r3, [r4, #0]
 8001d08:	f423 2380 	bic.w	r3, r3, #262144	@ 0x40000
 8001d0c:	e7cb      	b.n	8001ca6 <HAL_RCC_OscConfig+0x6a>
 8001d0e:	4c68      	ldr	r4, [pc, #416]	@ (8001eb0 <HAL_RCC_OscConfig+0x274>)
 8001d10:	6863      	ldr	r3, [r4, #4]
 8001d12:	f013 0f0c 	tst.w	r3, #12
 8001d16:	d007      	beq.n	8001d28 <HAL_RCC_OscConfig+0xec>
 8001d18:	6863      	ldr	r3, [r4, #4]
 8001d1a:	f003 030c 	and.w	r3, r3, #12
 8001d1e:	2b08      	cmp	r3, #8
 8001d20:	d110      	bne.n	8001d44 <HAL_RCC_OscConfig+0x108>
 8001d22:	6863      	ldr	r3, [r4, #4]
 8001d24:	03da      	lsls	r2, r3, #15
 8001d26:	d40d      	bmi.n	8001d44 <HAL_RCC_OscConfig+0x108>
 8001d28:	6823      	ldr	r3, [r4, #0]
 8001d2a:	079b      	lsls	r3, r3, #30
 8001d2c:	d502      	bpl.n	8001d34 <HAL_RCC_OscConfig+0xf8>
 8001d2e:	692b      	ldr	r3, [r5, #16]
 8001d30:	2b01      	cmp	r3, #1
 8001d32:	d1af      	bne.n	8001c94 <HAL_RCC_OscConfig+0x58>
 8001d34:	6823      	ldr	r3, [r4, #0]
 8001d36:	696a      	ldr	r2, [r5, #20]
 8001d38:	f023 03f8 	bic.w	r3, r3, #248	@ 0xf8
 8001d3c:	ea43 03c2 	orr.w	r3, r3, r2, lsl #3
 8001d40:	6023      	str	r3, [r4, #0]
 8001d42:	e785      	b.n	8001c50 <HAL_RCC_OscConfig+0x14>
 8001d44:	692a      	ldr	r2, [r5, #16]
 8001d46:	4b5b      	ldr	r3, [pc, #364]	@ (8001eb4 <HAL_RCC_OscConfig+0x278>)
 8001d48:	b16a      	cbz	r2, 8001d66 <HAL_RCC_OscConfig+0x12a>
 8001d4a:	2201      	movs	r2, #1
 8001d4c:	601a      	str	r2, [r3, #0]
 8001d4e:	f7fe fda7 	bl	80008a0 <HAL_GetTick>
 8001d52:	4606      	mov	r6, r0
 8001d54:	6823      	ldr	r3, [r4, #0]
 8001d56:	079f      	lsls	r7, r3, #30
 8001d58:	d4ec      	bmi.n	8001d34 <HAL_RCC_OscConfig+0xf8>
 8001d5a:	f7fe fda1 	bl	80008a0 <HAL_GetTick>
 8001d5e:	1b80      	subs	r0, r0, r6
 8001d60:	2802      	cmp	r0, #2
 8001d62:	d9f7      	bls.n	8001d54 <HAL_RCC_OscConfig+0x118>
 8001d64:	e7ab      	b.n	8001cbe <HAL_RCC_OscConfig+0x82>
 8001d66:	601a      	str	r2, [r3, #0]
 8001d68:	f7fe fd9a 	bl	80008a0 <HAL_GetTick>
 8001d6c:	4606      	mov	r6, r0
 8001d6e:	6823      	ldr	r3, [r4, #0]
 8001d70:	0798      	lsls	r0, r3, #30
 8001d72:	f57f af6d 	bpl.w	8001c50 <HAL_RCC_OscConfig+0x14>
 8001d76:	f7fe fd93 	bl	80008a0 <HAL_GetTick>
 8001d7a:	1b80      	subs	r0, r0, r6
 8001d7c:	2802      	cmp	r0, #2
 8001d7e:	d9f6      	bls.n	8001d6e <HAL_RCC_OscConfig+0x132>
 8001d80:	e79d      	b.n	8001cbe <HAL_RCC_OscConfig+0x82>
 8001d82:	69aa      	ldr	r2, [r5, #24]
 8001d84:	4e4a      	ldr	r6, [pc, #296]	@ (8001eb0 <HAL_RCC_OscConfig+0x274>)
 8001d86:	4b4b      	ldr	r3, [pc, #300]	@ (8001eb4 <HAL_RCC_OscConfig+0x278>)
 8001d88:	b1e2      	cbz	r2, 8001dc4 <HAL_RCC_OscConfig+0x188>
 8001d8a:	2201      	movs	r2, #1
 8001d8c:	f8c3 2480 	str.w	r2, [r3, #1152]	@ 0x480
 8001d90:	f7fe fd86 	bl	80008a0 <HAL_GetTick>
 8001d94:	4604      	mov	r4, r0
 8001d96:	6a73      	ldr	r3, [r6, #36]	@ 0x24
 8001d98:	079b      	lsls	r3, r3, #30
 8001d9a:	d50d      	bpl.n	8001db8 <HAL_RCC_OscConfig+0x17c>
 8001d9c:	f44f 52fa 	mov.w	r2, #8000	@ 0x1f40
 8001da0:	4b45      	ldr	r3, [pc, #276]	@ (8001eb8 <HAL_RCC_OscConfig+0x27c>)
 8001da2:	681b      	ldr	r3, [r3, #0]
 8001da4:	fbb3 f3f2 	udiv	r3, r3, r2
 8001da8:	9301      	str	r3, [sp, #4]
 8001daa:	bf00      	nop
 8001dac:	9b01      	ldr	r3, [sp, #4]
 8001dae:	1e5a      	subs	r2, r3, #1
 8001db0:	9201      	str	r2, [sp, #4]
 8001db2:	2b00      	cmp	r3, #0
 8001db4:	d1f9      	bne.n	8001daa <HAL_RCC_OscConfig+0x16e>
 8001db6:	e74f      	b.n	8001c58 <HAL_RCC_OscConfig+0x1c>
 8001db8:	f7fe fd72 	bl	80008a0 <HAL_GetTick>
 8001dbc:	1b00      	subs	r0, r0, r4
 8001dbe:	2802      	cmp	r0, #2
 8001dc0:	d9e9      	bls.n	8001d96 <HAL_RCC_OscConfig+0x15a>
 8001dc2:	e77c      	b.n	8001cbe <HAL_RCC_OscConfig+0x82>
 8001dc4:	f8c3 2480 	str.w	r2, [r3, #1152]	@ 0x480
 8001dc8:	f7fe fd6a 	bl	80008a0 <HAL_GetTick>
 8001dcc:	4604      	mov	r4, r0
 8001dce:	6a73      	ldr	r3, [r6, #36]	@ 0x24
 8001dd0:	079f      	lsls	r7, r3, #30
 8001dd2:	f57f af41 	bpl.w	8001c58 <HAL_RCC_OscConfig+0x1c>
 8001dd6:	f7fe fd63 	bl	80008a0 <HAL_GetTick>
 8001dda:	1b00      	subs	r0, r0, r4
 8001ddc:	2802      	cmp	r0, #2
 8001dde:	d9f6      	bls.n	8001dce <HAL_RCC_OscConfig+0x192>
 8001de0:	e76d      	b.n	8001cbe <HAL_RCC_OscConfig+0x82>
 8001de2:	4c33      	ldr	r4, [pc, #204]	@ (8001eb0 <HAL_RCC_OscConfig+0x274>)
 8001de4:	69e3      	ldr	r3, [r4, #28]
 8001de6:	00d8      	lsls	r0, r3, #3
 8001de8:	d424      	bmi.n	8001e34 <HAL_RCC_OscConfig+0x1f8>
 8001dea:	2701      	movs	r7, #1
 8001dec:	69e3      	ldr	r3, [r4, #28]
 8001dee:	f043 5380 	orr.w	r3, r3, #268435456	@ 0x10000000
 8001df2:	61e3      	str	r3, [r4, #28]
 8001df4:	69e3      	ldr	r3, [r4, #28]
 8001df6:	f003 5380 	and.w	r3, r3, #268435456	@ 0x10000000
 8001dfa:	9300      	str	r3, [sp, #0]
 8001dfc:	9b00      	ldr	r3, [sp, #0]
 8001dfe:	4e2f      	ldr	r6, [pc, #188]	@ (8001ebc <HAL_RCC_OscConfig+0x280>)
 8001e00:	6833      	ldr	r3, [r6, #0]
 8001e02:	05d9      	lsls	r1, r3, #23
 8001e04:	d518      	bpl.n	8001e38 <HAL_RCC_OscConfig+0x1fc>
 8001e06:	68eb      	ldr	r3, [r5, #12]
 8001e08:	2b01      	cmp	r3, #1
 8001e0a:	d126      	bne.n	8001e5a <HAL_RCC_OscConfig+0x21e>
 8001e0c:	6a23      	ldr	r3, [r4, #32]
 8001e0e:	f043 0301 	orr.w	r3, r3, #1
 8001e12:	6223      	str	r3, [r4, #32]
 8001e14:	f7fe fd44 	bl	80008a0 <HAL_GetTick>
 8001e18:	f241 3888 	movw	r8, #5000	@ 0x1388
 8001e1c:	4606      	mov	r6, r0
 8001e1e:	6a23      	ldr	r3, [r4, #32]
 8001e20:	079b      	lsls	r3, r3, #30
 8001e22:	d53f      	bpl.n	8001ea4 <HAL_RCC_OscConfig+0x268>
 8001e24:	2f00      	cmp	r7, #0
 8001e26:	f43f af1b 	beq.w	8001c60 <HAL_RCC_OscConfig+0x24>
 8001e2a:	69e3      	ldr	r3, [r4, #28]
 8001e2c:	f023 5380 	bic.w	r3, r3, #268435456	@ 0x10000000
 8001e30:	61e3      	str	r3, [r4, #28]
 8001e32:	e715      	b.n	8001c60 <HAL_RCC_OscConfig+0x24>
 8001e34:	2700      	movs	r7, #0
 8001e36:	e7e2      	b.n	8001dfe <HAL_RCC_OscConfig+0x1c2>
 8001e38:	6833      	ldr	r3, [r6, #0]
 8001e3a:	f443 7380 	orr.w	r3, r3, #256	@ 0x100
 8001e3e:	6033      	str	r3, [r6, #0]
 8001e40:	f7fe fd2e 	bl	80008a0 <HAL_GetTick>
 8001e44:	4680      	mov	r8, r0
 8001e46:	6833      	ldr	r3, [r6, #0]
 8001e48:	05da      	lsls	r2, r3, #23
 8001e4a:	d4dc      	bmi.n	8001e06 <HAL_RCC_OscConfig+0x1ca>
 8001e4c:	f7fe fd28 	bl	80008a0 <HAL_GetTick>
 8001e50:	eba0 0008 	sub.w	r0, r0, r8
 8001e54:	2864      	cmp	r0, #100	@ 0x64
 8001e56:	d9f6      	bls.n	8001e46 <HAL_RCC_OscConfig+0x20a>
 8001e58:	e731      	b.n	8001cbe <HAL_RCC_OscConfig+0x82>
 8001e5a:	b9ab      	cbnz	r3, 8001e88 <HAL_RCC_OscConfig+0x24c>
 8001e5c:	6a23      	ldr	r3, [r4, #32]
 8001e5e:	f241 3888 	movw	r8, #5000	@ 0x1388
 8001e62:	f023 0301 	bic.w	r3, r3, #1
 8001e66:	6223      	str	r3, [r4, #32]
 8001e68:	6a23      	ldr	r3, [r4, #32]
 8001e6a:	f023 0304 	bic.w	r3, r3, #4
 8001e6e:	6223      	str	r3, [r4, #32]
 8001e70:	f7fe fd16 	bl	80008a0 <HAL_GetTick>
 8001e74:	4606      	mov	r6, r0
 8001e76:	6a23      	ldr	r3, [r4, #32]
 8001e78:	0798      	lsls	r0, r3, #30
 8001e7a:	d5d3      	bpl.n	8001e24 <HAL_RCC_OscConfig+0x1e8>
 8001e7c:	f7fe fd10 	bl	80008a0 <HAL_GetTick>
 8001e80:	1b80      	subs	r0, r0, r6
 8001e82:	4540      	cmp	r0, r8
 8001e84:	d9f7      	bls.n	8001e76 <HAL_RCC_OscConfig+0x23a>
 8001e86:	e71a      	b.n	8001cbe <HAL_RCC_OscConfig+0x82>
 8001e88:	2b05      	cmp	r3, #5
 8001e8a:	6a23      	ldr	r3, [r4, #32]
 8001e8c:	d103      	bne.n	8001e96 <HAL_RCC_OscConfig+0x25a>
 8001e8e:	f043 0304 	orr.w	r3, r3, #4
 8001e92:	6223      	str	r3, [r4, #32]
 8001e94:	e7ba      	b.n	8001e0c <HAL_RCC_OscConfig+0x1d0>
 8001e96:	f023 0301 	bic.w	r3, r3, #1
 8001e9a:	6223      	str	r3, [r4, #32]
 8001e9c:	6a23      	ldr	r3, [r4, #32]
 8001e9e:	f023 0304 	bic.w	r3, r3, #4
 8001ea2:	e7b6      	b.n	8001e12 <HAL_RCC_OscConfig+0x1d6>
 8001ea4:	f7fe fcfc 	bl	80008a0 <HAL_GetTick>
 8001ea8:	1b80      	subs	r0, r0, r6
 8001eaa:	4540      	cmp	r0, r8
 8001eac:	d9b7      	bls.n	8001e1e <HAL_RCC_OscConfig+0x1e2>
 8001eae:	e706      	b.n	8001cbe <HAL_RCC_OscConfig+0x82>
 8001eb0:	40021000 	.word	0x40021000
 8001eb4:	42420000 	.word	0x42420000
 8001eb8:	20000000 	.word	0x20000000
 8001ebc:	40007000 	.word	0x40007000
 8001ec0:	4c2a      	ldr	r4, [pc, #168]	@ (8001f6c <HAL_RCC_OscConfig+0x330>)
 8001ec2:	6862      	ldr	r2, [r4, #4]
 8001ec4:	f002 020c 	and.w	r2, r2, #12
 8001ec8:	2a08      	cmp	r2, #8
 8001eca:	d03e      	beq.n	8001f4a <HAL_RCC_OscConfig+0x30e>
 8001ecc:	2200      	movs	r2, #0
 8001ece:	2b02      	cmp	r3, #2
 8001ed0:	4b27      	ldr	r3, [pc, #156]	@ (8001f70 <HAL_RCC_OscConfig+0x334>)
 8001ed2:	661a      	str	r2, [r3, #96]	@ 0x60
 8001ed4:	d12c      	bne.n	8001f30 <HAL_RCC_OscConfig+0x2f4>
 8001ed6:	f7fe fce3 	bl	80008a0 <HAL_GetTick>
 8001eda:	4606      	mov	r6, r0
 8001edc:	6823      	ldr	r3, [r4, #0]
 8001ede:	0199      	lsls	r1, r3, #6
 8001ee0:	d420      	bmi.n	8001f24 <HAL_RCC_OscConfig+0x2e8>
 8001ee2:	6a2b      	ldr	r3, [r5, #32]
 8001ee4:	f5b3 3f80 	cmp.w	r3, #65536	@ 0x10000
 8001ee8:	d105      	bne.n	8001ef6 <HAL_RCC_OscConfig+0x2ba>
 8001eea:	6862      	ldr	r2, [r4, #4]
 8001eec:	68a9      	ldr	r1, [r5, #8]
 8001eee:	f422 3200 	bic.w	r2, r2, #131072	@ 0x20000
 8001ef2:	430a      	orrs	r2, r1
 8001ef4:	6062      	str	r2, [r4, #4]
 8001ef6:	6a69      	ldr	r1, [r5, #36]	@ 0x24
 8001ef8:	6862      	ldr	r2, [r4, #4]
 8001efa:	430b      	orrs	r3, r1
 8001efc:	f422 1274 	bic.w	r2, r2, #3997696	@ 0x3d0000
 8001f00:	4313      	orrs	r3, r2
 8001f02:	2201      	movs	r2, #1
 8001f04:	6063      	str	r3, [r4, #4]
 8001f06:	4b1a      	ldr	r3, [pc, #104]	@ (8001f70 <HAL_RCC_OscConfig+0x334>)
 8001f08:	661a      	str	r2, [r3, #96]	@ 0x60
 8001f0a:	f7fe fcc9 	bl	80008a0 <HAL_GetTick>
 8001f0e:	4605      	mov	r5, r0
 8001f10:	6823      	ldr	r3, [r4, #0]
 8001f12:	019a      	lsls	r2, r3, #6
 8001f14:	f53f aea8 	bmi.w	8001c68 <HAL_RCC_OscConfig+0x2c>
 8001f18:	f7fe fcc2 	bl	80008a0 <HAL_GetTick>
 8001f1c:	1b40      	subs	r0, r0, r5
 8001f1e:	2802      	cmp	r0, #2
 8001f20:	d9f6      	bls.n	8001f10 <HAL_RCC_OscConfig+0x2d4>
 8001f22:	e6cc      	b.n	8001cbe <HAL_RCC_OscConfig+0x82>
 8001f24:	f7fe fcbc 	bl	80008a0 <HAL_GetTick>
 8001f28:	1b80      	subs	r0, r0, r6
 8001f2a:	2802      	cmp	r0, #2
 8001f2c:	d9d6      	bls.n	8001edc <HAL_RCC_OscConfig+0x2a0>
 8001f2e:	e6c6      	b.n	8001cbe <HAL_RCC_OscConfig+0x82>
 8001f30:	f7fe fcb6 	bl	80008a0 <HAL_GetTick>
 8001f34:	4605      	mov	r5, r0
 8001f36:	6823      	ldr	r3, [r4, #0]
 8001f38:	019b      	lsls	r3, r3, #6
 8001f3a:	f57f ae95 	bpl.w	8001c68 <HAL_RCC_OscConfig+0x2c>
 8001f3e:	f7fe fcaf 	bl	80008a0 <HAL_GetTick>
 8001f42:	1b40      	subs	r0, r0, r5
 8001f44:	2802      	cmp	r0, #2
 8001f46:	d9f6      	bls.n	8001f36 <HAL_RCC_OscConfig+0x2fa>
 8001f48:	e6b9      	b.n	8001cbe <HAL_RCC_OscConfig+0x82>
 8001f4a:	2b01      	cmp	r3, #1
 8001f4c:	f43f aea2 	beq.w	8001c94 <HAL_RCC_OscConfig+0x58>
 8001f50:	6860      	ldr	r0, [r4, #4]
 8001f52:	6a2b      	ldr	r3, [r5, #32]
 8001f54:	f400 3280 	and.w	r2, r0, #65536	@ 0x10000
 8001f58:	429a      	cmp	r2, r3
 8001f5a:	f47f ae9b 	bne.w	8001c94 <HAL_RCC_OscConfig+0x58>
 8001f5e:	6a6b      	ldr	r3, [r5, #36]	@ 0x24
 8001f60:	f400 1070 	and.w	r0, r0, #3932160	@ 0x3c0000
 8001f64:	1ac0      	subs	r0, r0, r3
 8001f66:	bf18      	it	ne
 8001f68:	2001      	movne	r0, #1
 8001f6a:	e6a9      	b.n	8001cc0 <HAL_RCC_OscConfig+0x84>
 8001f6c:	40021000 	.word	0x40021000
 8001f70:	42420000 	.word	0x42420000

08001f74 <HAL_RCC_GetSysClockFreq>:
 8001f74:	4a0d      	ldr	r2, [pc, #52]	@ (8001fac <HAL_RCC_GetSysClockFreq+0x38>)
 8001f76:	6853      	ldr	r3, [r2, #4]
 8001f78:	f003 010c 	and.w	r1, r3, #12
 8001f7c:	2908      	cmp	r1, #8
 8001f7e:	d112      	bne.n	8001fa6 <HAL_RCC_GetSysClockFreq+0x32>
 8001f80:	480b      	ldr	r0, [pc, #44]	@ (8001fb0 <HAL_RCC_GetSysClockFreq+0x3c>)
 8001f82:	f3c3 4183 	ubfx	r1, r3, #18, #4
 8001f86:	03db      	lsls	r3, r3, #15
 8001f88:	5c40      	ldrb	r0, [r0, r1]
 8001f8a:	d509      	bpl.n	8001fa0 <HAL_RCC_GetSysClockFreq+0x2c>
 8001f8c:	6853      	ldr	r3, [r2, #4]
 8001f8e:	4a09      	ldr	r2, [pc, #36]	@ (8001fb4 <HAL_RCC_GetSysClockFreq+0x40>)
 8001f90:	f3c3 4340 	ubfx	r3, r3, #17, #1
 8001f94:	4350      	muls	r0, r2
 8001f96:	4a08      	ldr	r2, [pc, #32]	@ (8001fb8 <HAL_RCC_GetSysClockFreq+0x44>)
 8001f98:	5cd3      	ldrb	r3, [r2, r3]
 8001f9a:	fbb0 f0f3 	udiv	r0, r0, r3
 8001f9e:	4770      	bx	lr
 8001fa0:	4b06      	ldr	r3, [pc, #24]	@ (8001fbc <HAL_RCC_GetSysClockFreq+0x48>)
 8001fa2:	4358      	muls	r0, r3
 8001fa4:	4770      	bx	lr
 8001fa6:	4803      	ldr	r0, [pc, #12]	@ (8001fb4 <HAL_RCC_GetSysClockFreq+0x40>)
 8001fa8:	4770      	bx	lr
 8001faa:	bf00      	nop
 8001fac:	40021000 	.word	0x40021000
 8001fb0:	080048a9 	.word	0x080048a9
 8001fb4:	007a1200 	.word	0x007a1200
 8001fb8:	080048a7 	.word	0x080048a7
 8001fbc:	003d0900 	.word	0x003d0900

08001fc0 <HAL_RCC_ClockConfig>:
 8001fc0:	e92d 41f0 	stmdb	sp!, {r4, r5, r6, r7, r8, lr}
 8001fc4:	460d      	mov	r5, r1
 8001fc6:	4604      	mov	r4, r0
 8001fc8:	b910      	cbnz	r0, 8001fd0 <HAL_RCC_ClockConfig+0x10>
 8001fca:	2001      	movs	r0, #1
 8001fcc:	e8bd 81f0 	ldmia.w	sp!, {r4, r5, r6, r7, r8, pc}
 8001fd0:	4a44      	ldr	r2, [pc, #272]	@ (80020e4 <HAL_RCC_ClockConfig+0x124>)
 8001fd2:	6813      	ldr	r3, [r2, #0]
 8001fd4:	f003 0307 	and.w	r3, r3, #7
 8001fd8:	428b      	cmp	r3, r1
 8001fda:	d328      	bcc.n	800202e <HAL_RCC_ClockConfig+0x6e>
 8001fdc:	6821      	ldr	r1, [r4, #0]
 8001fde:	078e      	lsls	r6, r1, #30
 8001fe0:	d430      	bmi.n	8002044 <HAL_RCC_ClockConfig+0x84>
 8001fe2:	07ca      	lsls	r2, r1, #31
 8001fe4:	d443      	bmi.n	800206e <HAL_RCC_ClockConfig+0xae>
 8001fe6:	4a3f      	ldr	r2, [pc, #252]	@ (80020e4 <HAL_RCC_ClockConfig+0x124>)
 8001fe8:	6813      	ldr	r3, [r2, #0]
 8001fea:	f003 0307 	and.w	r3, r3, #7
 8001fee:	42ab      	cmp	r3, r5
 8001ff0:	d865      	bhi.n	80020be <HAL_RCC_ClockConfig+0xfe>
 8001ff2:	6822      	ldr	r2, [r4, #0]
 8001ff4:	4d3c      	ldr	r5, [pc, #240]	@ (80020e8 <HAL_RCC_ClockConfig+0x128>)
 8001ff6:	f012 0f04 	tst.w	r2, #4
 8001ffa:	d16c      	bne.n	80020d6 <HAL_RCC_ClockConfig+0x116>
 8001ffc:	0713      	lsls	r3, r2, #28
 8001ffe:	d506      	bpl.n	800200e <HAL_RCC_ClockConfig+0x4e>
 8002000:	686b      	ldr	r3, [r5, #4]
 8002002:	6922      	ldr	r2, [r4, #16]
 8002004:	f423 5360 	bic.w	r3, r3, #14336	@ 0x3800
 8002008:	ea43 03c2 	orr.w	r3, r3, r2, lsl #3
 800200c:	606b      	str	r3, [r5, #4]
 800200e:	f7ff ffb1 	bl	8001f74 <HAL_RCC_GetSysClockFreq>
 8002012:	686b      	ldr	r3, [r5, #4]
 8002014:	4a35      	ldr	r2, [pc, #212]	@ (80020ec <HAL_RCC_ClockConfig+0x12c>)
 8002016:	f3c3 1303 	ubfx	r3, r3, #4, #4
 800201a:	5cd3      	ldrb	r3, [r2, r3]
 800201c:	40d8      	lsrs	r0, r3
 800201e:	4b34      	ldr	r3, [pc, #208]	@ (80020f0 <HAL_RCC_ClockConfig+0x130>)
 8002020:	6018      	str	r0, [r3, #0]
 8002022:	4b34      	ldr	r3, [pc, #208]	@ (80020f4 <HAL_RCC_ClockConfig+0x134>)
 8002024:	6818      	ldr	r0, [r3, #0]
 8002026:	f7fe fbf9 	bl	800081c <HAL_InitTick>
 800202a:	2000      	movs	r0, #0
 800202c:	e7ce      	b.n	8001fcc <HAL_RCC_ClockConfig+0xc>
 800202e:	6813      	ldr	r3, [r2, #0]
 8002030:	f023 0307 	bic.w	r3, r3, #7
 8002034:	430b      	orrs	r3, r1
 8002036:	6013      	str	r3, [r2, #0]
 8002038:	6813      	ldr	r3, [r2, #0]
 800203a:	f003 0307 	and.w	r3, r3, #7
 800203e:	428b      	cmp	r3, r1
 8002040:	d1c3      	bne.n	8001fca <HAL_RCC_ClockConfig+0xa>
 8002042:	e7cb      	b.n	8001fdc <HAL_RCC_ClockConfig+0x1c>
 8002044:	4b28      	ldr	r3, [pc, #160]	@ (80020e8 <HAL_RCC_ClockConfig+0x128>)
 8002046:	f011 0f04 	tst.w	r1, #4
 800204a:	bf1e      	ittt	ne
 800204c:	685a      	ldrne	r2, [r3, #4]
 800204e:	f442 62e0 	orrne.w	r2, r2, #1792	@ 0x700
 8002052:	605a      	strne	r2, [r3, #4]
 8002054:	0708      	lsls	r0, r1, #28
 8002056:	bf42      	ittt	mi
 8002058:	685a      	ldrmi	r2, [r3, #4]
 800205a:	f442 5260 	orrmi.w	r2, r2, #14336	@ 0x3800
 800205e:	605a      	strmi	r2, [r3, #4]
 8002060:	685a      	ldr	r2, [r3, #4]
 8002062:	68a0      	ldr	r0, [r4, #8]
 8002064:	f022 02f0 	bic.w	r2, r2, #240	@ 0xf0
 8002068:	4302      	orrs	r2, r0
 800206a:	605a      	str	r2, [r3, #4]
 800206c:	e7b9      	b.n	8001fe2 <HAL_RCC_ClockConfig+0x22>
 800206e:	6862      	ldr	r2, [r4, #4]
 8002070:	4e1d      	ldr	r6, [pc, #116]	@ (80020e8 <HAL_RCC_ClockConfig+0x128>)
 8002072:	2a01      	cmp	r2, #1
 8002074:	6833      	ldr	r3, [r6, #0]
 8002076:	d11a      	bne.n	80020ae <HAL_RCC_ClockConfig+0xee>
 8002078:	f413 3f00 	tst.w	r3, #131072	@ 0x20000
 800207c:	d0a5      	beq.n	8001fca <HAL_RCC_ClockConfig+0xa>
 800207e:	6873      	ldr	r3, [r6, #4]
 8002080:	f241 3888 	movw	r8, #5000	@ 0x1388
 8002084:	f023 0303 	bic.w	r3, r3, #3
 8002088:	4313      	orrs	r3, r2
 800208a:	6073      	str	r3, [r6, #4]
 800208c:	f7fe fc08 	bl	80008a0 <HAL_GetTick>
 8002090:	4607      	mov	r7, r0
 8002092:	6873      	ldr	r3, [r6, #4]
 8002094:	6862      	ldr	r2, [r4, #4]
 8002096:	f003 030c 	and.w	r3, r3, #12
 800209a:	ebb3 0f82 	cmp.w	r3, r2, lsl #2
 800209e:	d0a2      	beq.n	8001fe6 <HAL_RCC_ClockConfig+0x26>
 80020a0:	f7fe fbfe 	bl	80008a0 <HAL_GetTick>
 80020a4:	1bc0      	subs	r0, r0, r7
 80020a6:	4540      	cmp	r0, r8
 80020a8:	d9f3      	bls.n	8002092 <HAL_RCC_ClockConfig+0xd2>
 80020aa:	2003      	movs	r0, #3
 80020ac:	e78e      	b.n	8001fcc <HAL_RCC_ClockConfig+0xc>
 80020ae:	2a02      	cmp	r2, #2
 80020b0:	d102      	bne.n	80020b8 <HAL_RCC_ClockConfig+0xf8>
 80020b2:	f013 7f00 	tst.w	r3, #33554432	@ 0x2000000
 80020b6:	e7e1      	b.n	800207c <HAL_RCC_ClockConfig+0xbc>
 80020b8:	f013 0f02 	tst.w	r3, #2
 80020bc:	e7de      	b.n	800207c <HAL_RCC_ClockConfig+0xbc>
 80020be:	6813      	ldr	r3, [r2, #0]
 80020c0:	f023 0307 	bic.w	r3, r3, #7
 80020c4:	432b      	orrs	r3, r5
 80020c6:	6013      	str	r3, [r2, #0]
 80020c8:	6813      	ldr	r3, [r2, #0]
 80020ca:	f003 0307 	and.w	r3, r3, #7
 80020ce:	42ab      	cmp	r3, r5
 80020d0:	f47f af7b 	bne.w	8001fca <HAL_RCC_ClockConfig+0xa>
 80020d4:	e78d      	b.n	8001ff2 <HAL_RCC_ClockConfig+0x32>
 80020d6:	686b      	ldr	r3, [r5, #4]
 80020d8:	68e1      	ldr	r1, [r4, #12]
 80020da:	f423 63e0 	bic.w	r3, r3, #1792	@ 0x700
 80020de:	430b      	orrs	r3, r1
 80020e0:	606b      	str	r3, [r5, #4]
 80020e2:	e78b      	b.n	8001ffc <HAL_RCC_ClockConfig+0x3c>
 80020e4:	40022000 	.word	0x40022000
 80020e8:	40021000 	.word	0x40021000
 80020ec:	08004897 	.word	0x08004897
 80020f0:	20000000 	.word	0x20000000
 80020f4:	20000008 	.word	0x20000008

080020f8 <HAL_RCC_GetPCLK1Freq>:
 80020f8:	4b04      	ldr	r3, [pc, #16]	@ (800210c <HAL_RCC_GetPCLK1Freq+0x14>)
 80020fa:	4a05      	ldr	r2, [pc, #20]	@ (8002110 <HAL_RCC_GetPCLK1Freq+0x18>)
 80020fc:	685b      	ldr	r3, [r3, #4]
 80020fe:	f3c3 2302 	ubfx	r3, r3, #8, #3
 8002102:	5cd3      	ldrb	r3, [r2, r3]
 8002104:	4a03      	ldr	r2, [pc, #12]	@ (8002114 <HAL_RCC_GetPCLK1Freq+0x1c>)
 8002106:	6810      	ldr	r0, [r2, #0]
 8002108:	40d8      	lsrs	r0, r3
 800210a:	4770      	bx	lr
 800210c:	40021000 	.word	0x40021000
 8002110:	0800488f 	.word	0x0800488f
 8002114:	20000000 	.word	0x20000000

08002118 <HAL_RCC_GetPCLK2Freq>:
 8002118:	4b04      	ldr	r3, [pc, #16]	@ (800212c <HAL_RCC_GetPCLK2Freq+0x14>)
 800211a:	4a05      	ldr	r2, [pc, #20]	@ (8002130 <HAL_RCC_GetPCLK2Freq+0x18>)
 800211c:	685b      	ldr	r3, [r3, #4]
 800211e:	f3c3 23c2 	ubfx	r3, r3, #11, #3
 8002122:	5cd3      	ldrb	r3, [r2, r3]
 8002124:	4a03      	ldr	r2, [pc, #12]	@ (8002134 <HAL_RCC_GetPCLK2Freq+0x1c>)
 8002126:	6810      	ldr	r0, [r2, #0]
 8002128:	40d8      	lsrs	r0, r3
 800212a:	4770      	bx	lr
 800212c:	40021000 	.word	0x40021000
 8002130:	0800488f 	.word	0x0800488f
 8002134:	20000000 	.word	0x20000000

08002138 <HAL_SPI_Init>:
 8002138:	b510      	push	{r4, lr}
 800213a:	4604      	mov	r4, r0
 800213c:	2800      	cmp	r0, #0
 800213e:	d051      	beq.n	80021e4 <HAL_SPI_Init+0xac>
 8002140:	6a43      	ldr	r3, [r0, #36]	@ 0x24
 8002142:	2b00      	cmp	r3, #0
 8002144:	d14a      	bne.n	80021dc <HAL_SPI_Init+0xa4>
 8002146:	6842      	ldr	r2, [r0, #4]
 8002148:	f5b2 7f82 	cmp.w	r2, #260	@ 0x104
 800214c:	d000      	beq.n	8002150 <HAL_SPI_Init+0x18>
 800214e:	61c3      	str	r3, [r0, #28]
 8002150:	2300      	movs	r3, #0
 8002152:	62a3      	str	r3, [r4, #40]	@ 0x28
 8002154:	f894 3051 	ldrb.w	r3, [r4, #81]	@ 0x51
 8002158:	f003 02ff 	and.w	r2, r3, #255	@ 0xff
 800215c:	b923      	cbnz	r3, 8002168 <HAL_SPI_Init+0x30>
 800215e:	4620      	mov	r0, r4
 8002160:	f884 2050 	strb.w	r2, [r4, #80]	@ 0x50
 8002164:	f7fe fa10 	bl	8000588 <HAL_SPI_MspInit>
 8002168:	2302      	movs	r3, #2
 800216a:	6822      	ldr	r2, [r4, #0]
 800216c:	f884 3051 	strb.w	r3, [r4, #81]	@ 0x51
 8002170:	6813      	ldr	r3, [r2, #0]
 8002172:	68a0      	ldr	r0, [r4, #8]
 8002174:	f023 0340 	bic.w	r3, r3, #64	@ 0x40
 8002178:	6013      	str	r3, [r2, #0]
 800217a:	6863      	ldr	r3, [r4, #4]
 800217c:	f400 4004 	and.w	r0, r0, #33792	@ 0x8400
 8002180:	f403 7382 	and.w	r3, r3, #260	@ 0x104
 8002184:	4303      	orrs	r3, r0
 8002186:	68e0      	ldr	r0, [r4, #12]
 8002188:	69a1      	ldr	r1, [r4, #24]
 800218a:	f400 6000 	and.w	r0, r0, #2048	@ 0x800
 800218e:	4303      	orrs	r3, r0
 8002190:	6920      	ldr	r0, [r4, #16]
 8002192:	f000 0002 	and.w	r0, r0, #2
 8002196:	4303      	orrs	r3, r0
 8002198:	6960      	ldr	r0, [r4, #20]
 800219a:	f000 0001 	and.w	r0, r0, #1
 800219e:	4303      	orrs	r3, r0
 80021a0:	f401 7000 	and.w	r0, r1, #512	@ 0x200
 80021a4:	4303      	orrs	r3, r0
 80021a6:	69e0      	ldr	r0, [r4, #28]
 80021a8:	0c09      	lsrs	r1, r1, #16
 80021aa:	f000 0038 	and.w	r0, r0, #56	@ 0x38
 80021ae:	4303      	orrs	r3, r0
 80021b0:	6a20      	ldr	r0, [r4, #32]
 80021b2:	f001 0104 	and.w	r1, r1, #4
 80021b6:	f000 0080 	and.w	r0, r0, #128	@ 0x80
 80021ba:	4303      	orrs	r3, r0
 80021bc:	6aa0      	ldr	r0, [r4, #40]	@ 0x28
 80021be:	f400 5000 	and.w	r0, r0, #8192	@ 0x2000
 80021c2:	4303      	orrs	r3, r0
 80021c4:	6013      	str	r3, [r2, #0]
 80021c6:	6051      	str	r1, [r2, #4]
 80021c8:	69d3      	ldr	r3, [r2, #28]
 80021ca:	2000      	movs	r0, #0
 80021cc:	f423 6300 	bic.w	r3, r3, #2048	@ 0x800
 80021d0:	61d3      	str	r3, [r2, #28]
 80021d2:	2301      	movs	r3, #1
 80021d4:	6560      	str	r0, [r4, #84]	@ 0x54
 80021d6:	f884 3051 	strb.w	r3, [r4, #81]	@ 0x51
 80021da:	bd10      	pop	{r4, pc}
 80021dc:	2300      	movs	r3, #0
 80021de:	e9c0 3304 	strd	r3, r3, [r0, #16]
 80021e2:	e7b5      	b.n	8002150 <HAL_SPI_Init+0x18>
 80021e4:	2001      	movs	r0, #1
 80021e6:	e7f8      	b.n	80021da <HAL_SPI_Init+0xa2>

080021e8 <HAL_SPI_ErrorCallback>:
 80021e8:	4770      	bx	lr
	...

080021ec <HAL_SPI_IRQHandler>:
 80021ec:	b5f0      	push	{r4, r5, r6, r7, lr}
 80021ee:	6803      	ldr	r3, [r0, #0]
 80021f0:	4604      	mov	r4, r0
 80021f2:	6859      	ldr	r1, [r3, #4]
 80021f4:	689a      	ldr	r2, [r3, #8]
 80021f6:	b085      	sub	sp, #20
 80021f8:	0656      	lsls	r6, r2, #25
 80021fa:	ea4f 1592 	mov.w	r5, r2, lsr #6
 80021fe:	f3c2 1780 	ubfx	r7, r2, #6, #1
 8002202:	d408      	bmi.n	8002216 <HAL_SPI_IRQHandler+0x2a>
 8002204:	07d6      	lsls	r6, r2, #31
 8002206:	d506      	bpl.n	8002216 <HAL_SPI_IRQHandler+0x2a>
 8002208:	064e      	lsls	r6, r1, #25
 800220a:	d504      	bpl.n	8002216 <HAL_SPI_IRQHandler+0x2a>
 800220c:	6c03      	ldr	r3, [r0, #64]	@ 0x40
 800220e:	b005      	add	sp, #20
 8002210:	e8bd 40f0 	ldmia.w	sp!, {r4, r5, r6, r7, lr}
 8002214:	4718      	bx	r3
 8002216:	0796      	lsls	r6, r2, #30
 8002218:	d504      	bpl.n	8002224 <HAL_SPI_IRQHandler+0x38>
 800221a:	0608      	lsls	r0, r1, #24
 800221c:	d502      	bpl.n	8002224 <HAL_SPI_IRQHandler+0x38>
 800221e:	4620      	mov	r0, r4
 8002220:	6c63      	ldr	r3, [r4, #68]	@ 0x44
 8002222:	e7f4      	b.n	800220e <HAL_SPI_IRQHandler+0x22>
 8002224:	ea45 1552 	orr.w	r5, r5, r2, lsr #5
 8002228:	0956      	lsrs	r6, r2, #5
 800222a:	07ea      	lsls	r2, r5, #31
 800222c:	d54c      	bpl.n	80022c8 <HAL_SPI_IRQHandler+0xdc>
 800222e:	068d      	lsls	r5, r1, #26
 8002230:	d54a      	bpl.n	80022c8 <HAL_SPI_IRQHandler+0xdc>
 8002232:	b177      	cbz	r7, 8002252 <HAL_SPI_IRQHandler+0x66>
 8002234:	f894 2051 	ldrb.w	r2, [r4, #81]	@ 0x51
 8002238:	2000      	movs	r0, #0
 800223a:	2a03      	cmp	r2, #3
 800223c:	d03e      	beq.n	80022bc <HAL_SPI_IRQHandler+0xd0>
 800223e:	6d62      	ldr	r2, [r4, #84]	@ 0x54
 8002240:	f042 0204 	orr.w	r2, r2, #4
 8002244:	6562      	str	r2, [r4, #84]	@ 0x54
 8002246:	9001      	str	r0, [sp, #4]
 8002248:	68da      	ldr	r2, [r3, #12]
 800224a:	9201      	str	r2, [sp, #4]
 800224c:	689a      	ldr	r2, [r3, #8]
 800224e:	9201      	str	r2, [sp, #4]
 8002250:	9a01      	ldr	r2, [sp, #4]
 8002252:	07f0      	lsls	r0, r6, #31
 8002254:	d50c      	bpl.n	8002270 <HAL_SPI_IRQHandler+0x84>
 8002256:	6d62      	ldr	r2, [r4, #84]	@ 0x54
 8002258:	f042 0201 	orr.w	r2, r2, #1
 800225c:	6562      	str	r2, [r4, #84]	@ 0x54
 800225e:	2200      	movs	r2, #0
 8002260:	9203      	str	r2, [sp, #12]
 8002262:	689a      	ldr	r2, [r3, #8]
 8002264:	9203      	str	r2, [sp, #12]
 8002266:	681a      	ldr	r2, [r3, #0]
 8002268:	f022 0240 	bic.w	r2, r2, #64	@ 0x40
 800226c:	601a      	str	r2, [r3, #0]
 800226e:	9a03      	ldr	r2, [sp, #12]
 8002270:	6d62      	ldr	r2, [r4, #84]	@ 0x54
 8002272:	b34a      	cbz	r2, 80022c8 <HAL_SPI_IRQHandler+0xdc>
 8002274:	685a      	ldr	r2, [r3, #4]
 8002276:	f022 02e0 	bic.w	r2, r2, #224	@ 0xe0
 800227a:	605a      	str	r2, [r3, #4]
 800227c:	2201      	movs	r2, #1
 800227e:	f884 2051 	strb.w	r2, [r4, #81]	@ 0x51
 8002282:	078a      	lsls	r2, r1, #30
 8002284:	d022      	beq.n	80022cc <HAL_SPI_IRQHandler+0xe0>
 8002286:	685a      	ldr	r2, [r3, #4]
 8002288:	6ce0      	ldr	r0, [r4, #76]	@ 0x4c
 800228a:	f022 0203 	bic.w	r2, r2, #3
 800228e:	605a      	str	r2, [r3, #4]
 8002290:	b140      	cbz	r0, 80022a4 <HAL_SPI_IRQHandler+0xb8>
 8002292:	4b10      	ldr	r3, [pc, #64]	@ (80022d4 <HAL_SPI_IRQHandler+0xe8>)
 8002294:	6343      	str	r3, [r0, #52]	@ 0x34
 8002296:	f7fe fbf9 	bl	8000a8c <HAL_DMA_Abort_IT>
 800229a:	b118      	cbz	r0, 80022a4 <HAL_SPI_IRQHandler+0xb8>
 800229c:	6d63      	ldr	r3, [r4, #84]	@ 0x54
 800229e:	f043 0340 	orr.w	r3, r3, #64	@ 0x40
 80022a2:	6563      	str	r3, [r4, #84]	@ 0x54
 80022a4:	6ca0      	ldr	r0, [r4, #72]	@ 0x48
 80022a6:	b178      	cbz	r0, 80022c8 <HAL_SPI_IRQHandler+0xdc>
 80022a8:	4b0a      	ldr	r3, [pc, #40]	@ (80022d4 <HAL_SPI_IRQHandler+0xe8>)
 80022aa:	6343      	str	r3, [r0, #52]	@ 0x34
 80022ac:	f7fe fbee 	bl	8000a8c <HAL_DMA_Abort_IT>
 80022b0:	b150      	cbz	r0, 80022c8 <HAL_SPI_IRQHandler+0xdc>
 80022b2:	6d63      	ldr	r3, [r4, #84]	@ 0x54
 80022b4:	f043 0340 	orr.w	r3, r3, #64	@ 0x40
 80022b8:	6563      	str	r3, [r4, #84]	@ 0x54
 80022ba:	e005      	b.n	80022c8 <HAL_SPI_IRQHandler+0xdc>
 80022bc:	9002      	str	r0, [sp, #8]
 80022be:	68da      	ldr	r2, [r3, #12]
 80022c0:	9202      	str	r2, [sp, #8]
 80022c2:	689b      	ldr	r3, [r3, #8]
 80022c4:	9302      	str	r3, [sp, #8]
 80022c6:	9b02      	ldr	r3, [sp, #8]
 80022c8:	b005      	add	sp, #20
 80022ca:	bdf0      	pop	{r4, r5, r6, r7, pc}
 80022cc:	4620      	mov	r0, r4
 80022ce:	f7ff ff8b 	bl	80021e8 <HAL_SPI_ErrorCallback>
 80022d2:	e7f9      	b.n	80022c8 <HAL_SPI_IRQHandler+0xdc>
 80022d4:	080022d9 	.word	0x080022d9

080022d8 <SPI_DMAAbortOnError>:
 80022d8:	b508      	push	{r3, lr}
 80022da:	2300      	movs	r3, #0
 80022dc:	6a40      	ldr	r0, [r0, #36]	@ 0x24
 80022de:	87c3      	strh	r3, [r0, #62]	@ 0x3e
 80022e0:	86c3      	strh	r3, [r0, #54]	@ 0x36
 80022e2:	f7ff ff81 	bl	80021e8 <HAL_SPI_ErrorCallback>
 80022e6:	bd08      	pop	{r3, pc}

080022e8 <UART_EndRxTransfer>:
 80022e8:	6802      	ldr	r2, [r0, #0]
 80022ea:	f102 030c 	add.w	r3, r2, #12
 80022ee:	e853 3f00 	ldrex	r3, [r3]
 80022f2:	f423 7390 	bic.w	r3, r3, #288	@ 0x120
 80022f6:	320c      	adds	r2, #12
 80022f8:	e842 3100 	strex	r1, r3, [r2]
 80022fc:	6802      	ldr	r2, [r0, #0]
 80022fe:	2900      	cmp	r1, #0
 8002300:	d1f2      	bne.n	80022e8 <UART_EndRxTransfer>
 8002302:	f102 0314 	add.w	r3, r2, #20
 8002306:	e853 3f00 	ldrex	r3, [r3]
 800230a:	f023 0301 	bic.w	r3, r3, #1
 800230e:	f102 0c14 	add.w	ip, r2, #20
 8002312:	e84c 3100 	strex	r1, r3, [ip]
 8002316:	2900      	cmp	r1, #0
 8002318:	d1f3      	bne.n	8002302 <UART_EndRxTransfer+0x1a>
 800231a:	6b03      	ldr	r3, [r0, #48]	@ 0x30
 800231c:	2b01      	cmp	r3, #1
 800231e:	d10b      	bne.n	8002338 <UART_EndRxTransfer+0x50>
 8002320:	f102 030c 	add.w	r3, r2, #12
 8002324:	e853 3f00 	ldrex	r3, [r3]
 8002328:	f023 0310 	bic.w	r3, r3, #16
 800232c:	f102 0c0c 	add.w	ip, r2, #12
 8002330:	e84c 3100 	strex	r1, r3, [ip]
 8002334:	2900      	cmp	r1, #0
 8002336:	d1f3      	bne.n	8002320 <UART_EndRxTransfer+0x38>
 8002338:	2320      	movs	r3, #32
 800233a:	f880 3042 	strb.w	r3, [r0, #66]	@ 0x42
 800233e:	2300      	movs	r3, #0
 8002340:	6303      	str	r3, [r0, #48]	@ 0x30
 8002342:	4770      	bx	lr

08002344 <UART_SetConfig>:
 8002344:	b510      	push	{r4, lr}
 8002346:	4604      	mov	r4, r0
 8002348:	6803      	ldr	r3, [r0, #0]
 800234a:	68c1      	ldr	r1, [r0, #12]
 800234c:	691a      	ldr	r2, [r3, #16]
 800234e:	f422 5240 	bic.w	r2, r2, #12288	@ 0x3000
 8002352:	430a      	orrs	r2, r1
 8002354:	611a      	str	r2, [r3, #16]
 8002356:	6882      	ldr	r2, [r0, #8]
 8002358:	6900      	ldr	r0, [r0, #16]
 800235a:	68d9      	ldr	r1, [r3, #12]
 800235c:	4302      	orrs	r2, r0
 800235e:	6960      	ldr	r0, [r4, #20]
 8002360:	f421 51b0 	bic.w	r1, r1, #5632	@ 0x1600
 8002364:	f021 010c 	bic.w	r1, r1, #12
 8002368:	4302      	orrs	r2, r0
 800236a:	430a      	orrs	r2, r1
 800236c:	60da      	str	r2, [r3, #12]
 800236e:	695a      	ldr	r2, [r3, #20]
 8002370:	69a1      	ldr	r1, [r4, #24]
 8002372:	f422 7240 	bic.w	r2, r2, #768	@ 0x300
 8002376:	430a      	orrs	r2, r1
 8002378:	615a      	str	r2, [r3, #20]
 800237a:	4a0e      	ldr	r2, [pc, #56]	@ (80023b4 <UART_SetConfig+0x70>)
 800237c:	4293      	cmp	r3, r2
 800237e:	d115      	bne.n	80023ac <UART_SetConfig+0x68>
 8002380:	f7ff feca 	bl	8002118 <HAL_RCC_GetPCLK2Freq>
 8002384:	2319      	movs	r3, #25
 8002386:	4343      	muls	r3, r0
 8002388:	6862      	ldr	r2, [r4, #4]
 800238a:	6820      	ldr	r0, [r4, #0]
 800238c:	0092      	lsls	r2, r2, #2
 800238e:	fbb3 f3f2 	udiv	r3, r3, r2
 8002392:	2264      	movs	r2, #100	@ 0x64
 8002394:	fbb3 f1f2 	udiv	r1, r3, r2
 8002398:	fb02 3311 	mls	r3, r2, r1, r3
 800239c:	011b      	lsls	r3, r3, #4
 800239e:	3332      	adds	r3, #50	@ 0x32
 80023a0:	fbb3 f3f2 	udiv	r3, r3, r2
 80023a4:	eb03 1301 	add.w	r3, r3, r1, lsl #4
 80023a8:	6083      	str	r3, [r0, #8]
 80023aa:	bd10      	pop	{r4, pc}
 80023ac:	f7ff fea4 	bl	80020f8 <HAL_RCC_GetPCLK1Freq>
 80023b0:	e7e8      	b.n	8002384 <UART_SetConfig+0x40>
 80023b2:	bf00      	nop
 80023b4:	40013800 	.word	0x40013800

080023b8 <UART_WaitOnFlagUntilTimeout.constprop.0>:
 80023b8:	b5f7      	push	{r0, r1, r2, r4, r5, r6, r7, lr}
 80023ba:	4605      	mov	r5, r0
 80023bc:	460c      	mov	r4, r1
 80023be:	4617      	mov	r7, r2
 80023c0:	461e      	mov	r6, r3
 80023c2:	682a      	ldr	r2, [r5, #0]
 80023c4:	6813      	ldr	r3, [r2, #0]
 80023c6:	ea34 0303 	bics.w	r3, r4, r3
 80023ca:	d101      	bne.n	80023d0 <UART_WaitOnFlagUntilTimeout.constprop.0+0x18>
 80023cc:	2000      	movs	r0, #0
 80023ce:	e021      	b.n	8002414 <UART_WaitOnFlagUntilTimeout.constprop.0+0x5c>
 80023d0:	1c70      	adds	r0, r6, #1
 80023d2:	d0f7      	beq.n	80023c4 <UART_WaitOnFlagUntilTimeout.constprop.0+0xc>
 80023d4:	f7fe fa64 	bl	80008a0 <HAL_GetTick>
 80023d8:	1bc0      	subs	r0, r0, r7
 80023da:	4286      	cmp	r6, r0
 80023dc:	d31c      	bcc.n	8002418 <UART_WaitOnFlagUntilTimeout.constprop.0+0x60>
 80023de:	b1de      	cbz	r6, 8002418 <UART_WaitOnFlagUntilTimeout.constprop.0+0x60>
 80023e0:	682b      	ldr	r3, [r5, #0]
 80023e2:	68da      	ldr	r2, [r3, #12]
 80023e4:	0751      	lsls	r1, r2, #29
 80023e6:	d5ec      	bpl.n	80023c2 <UART_WaitOnFlagUntilTimeout.constprop.0+0xa>
 80023e8:	2c80      	cmp	r4, #128	@ 0x80
 80023ea:	d0ea      	beq.n	80023c2 <UART_WaitOnFlagUntilTimeout.constprop.0+0xa>
 80023ec:	2c40      	cmp	r4, #64	@ 0x40
 80023ee:	d0e8      	beq.n	80023c2 <UART_WaitOnFlagUntilTimeout.constprop.0+0xa>
 80023f0:	681a      	ldr	r2, [r3, #0]
 80023f2:	0712      	lsls	r2, r2, #28
 80023f4:	d5e5      	bpl.n	80023c2 <UART_WaitOnFlagUntilTimeout.constprop.0+0xa>
 80023f6:	2400      	movs	r4, #0
 80023f8:	9401      	str	r4, [sp, #4]
 80023fa:	681a      	ldr	r2, [r3, #0]
 80023fc:	4628      	mov	r0, r5
 80023fe:	9201      	str	r2, [sp, #4]
 8002400:	685b      	ldr	r3, [r3, #4]
 8002402:	9301      	str	r3, [sp, #4]
 8002404:	9b01      	ldr	r3, [sp, #4]
 8002406:	f7ff ff6f 	bl	80022e8 <UART_EndRxTransfer>
 800240a:	2308      	movs	r3, #8
 800240c:	2001      	movs	r0, #1
 800240e:	646b      	str	r3, [r5, #68]	@ 0x44
 8002410:	f885 4040 	strb.w	r4, [r5, #64]	@ 0x40
 8002414:	b003      	add	sp, #12
 8002416:	bdf0      	pop	{r4, r5, r6, r7, pc}
 8002418:	2003      	movs	r0, #3
 800241a:	e7fb      	b.n	8002414 <UART_WaitOnFlagUntilTimeout.constprop.0+0x5c>

0800241c <HAL_UART_Init>:
 800241c:	b510      	push	{r4, lr}
 800241e:	4604      	mov	r4, r0
 8002420:	b348      	cbz	r0, 8002476 <HAL_UART_Init+0x5a>
 8002422:	f890 3041 	ldrb.w	r3, [r0, #65]	@ 0x41
 8002426:	f003 02ff 	and.w	r2, r3, #255	@ 0xff
 800242a:	b91b      	cbnz	r3, 8002434 <HAL_UART_Init+0x18>
 800242c:	f880 2040 	strb.w	r2, [r0, #64]	@ 0x40
 8002430:	f7fe f8ea 	bl	8000608 <HAL_UART_MspInit>
 8002434:	2324      	movs	r3, #36	@ 0x24
 8002436:	6822      	ldr	r2, [r4, #0]
 8002438:	f884 3041 	strb.w	r3, [r4, #65]	@ 0x41
 800243c:	68d3      	ldr	r3, [r2, #12]
 800243e:	4620      	mov	r0, r4
 8002440:	f423 5300 	bic.w	r3, r3, #8192	@ 0x2000
 8002444:	60d3      	str	r3, [r2, #12]
 8002446:	f7ff ff7d 	bl	8002344 <UART_SetConfig>
 800244a:	6823      	ldr	r3, [r4, #0]
 800244c:	2000      	movs	r0, #0
 800244e:	691a      	ldr	r2, [r3, #16]
 8002450:	f422 4290 	bic.w	r2, r2, #18432	@ 0x4800
 8002454:	611a      	str	r2, [r3, #16]
 8002456:	695a      	ldr	r2, [r3, #20]
 8002458:	f022 022a 	bic.w	r2, r2, #42	@ 0x2a
 800245c:	615a      	str	r2, [r3, #20]
 800245e:	68da      	ldr	r2, [r3, #12]
 8002460:	f442 5200 	orr.w	r2, r2, #8192	@ 0x2000
 8002464:	60da      	str	r2, [r3, #12]
 8002466:	2320      	movs	r3, #32
 8002468:	6460      	str	r0, [r4, #68]	@ 0x44
 800246a:	f884 3041 	strb.w	r3, [r4, #65]	@ 0x41
 800246e:	f884 3042 	strb.w	r3, [r4, #66]	@ 0x42
 8002472:	6360      	str	r0, [r4, #52]	@ 0x34
 8002474:	bd10      	pop	{r4, pc}
 8002476:	2001      	movs	r0, #1
 8002478:	e7fc      	b.n	8002474 <HAL_UART_Init+0x58>

0800247a <HAL_UART_Transmit>:
 800247a:	e92d 43f8 	stmdb	sp!, {r3, r4, r5, r6, r7, r8, r9, lr}
 800247e:	4698      	mov	r8, r3
 8002480:	f890 3041 	ldrb.w	r3, [r0, #65]	@ 0x41
 8002484:	4604      	mov	r4, r0
 8002486:	2b20      	cmp	r3, #32
 8002488:	460e      	mov	r6, r1
 800248a:	4617      	mov	r7, r2
 800248c:	d13f      	bne.n	800250e <HAL_UART_Transmit+0x94>
 800248e:	2900      	cmp	r1, #0
 8002490:	d03f      	beq.n	8002512 <HAL_UART_Transmit+0x98>
 8002492:	2a00      	cmp	r2, #0
 8002494:	d03d      	beq.n	8002512 <HAL_UART_Transmit+0x98>
 8002496:	2321      	movs	r3, #33	@ 0x21
 8002498:	2500      	movs	r5, #0
 800249a:	6445      	str	r5, [r0, #68]	@ 0x44
 800249c:	f880 3041 	strb.w	r3, [r0, #65]	@ 0x41
 80024a0:	f7fe f9fe 	bl	80008a0 <HAL_GetTick>
 80024a4:	68a3      	ldr	r3, [r4, #8]
 80024a6:	4681      	mov	r9, r0
 80024a8:	f5b3 5f80 	cmp.w	r3, #4096	@ 0x1000
 80024ac:	84a7      	strh	r7, [r4, #36]	@ 0x24
 80024ae:	84e7      	strh	r7, [r4, #38]	@ 0x26
 80024b0:	d103      	bne.n	80024ba <HAL_UART_Transmit+0x40>
 80024b2:	6923      	ldr	r3, [r4, #16]
 80024b4:	b90b      	cbnz	r3, 80024ba <HAL_UART_Transmit+0x40>
 80024b6:	4635      	mov	r5, r6
 80024b8:	461e      	mov	r6, r3
 80024ba:	8ce3      	ldrh	r3, [r4, #38]	@ 0x26
 80024bc:	b29b      	uxth	r3, r3
 80024be:	b953      	cbnz	r3, 80024d6 <HAL_UART_Transmit+0x5c>
 80024c0:	4643      	mov	r3, r8
 80024c2:	464a      	mov	r2, r9
 80024c4:	2140      	movs	r1, #64	@ 0x40
 80024c6:	4620      	mov	r0, r4
 80024c8:	f7ff ff76 	bl	80023b8 <UART_WaitOnFlagUntilTimeout.constprop.0>
 80024cc:	2320      	movs	r3, #32
 80024ce:	b950      	cbnz	r0, 80024e6 <HAL_UART_Transmit+0x6c>
 80024d0:	f884 3041 	strb.w	r3, [r4, #65]	@ 0x41
 80024d4:	e00a      	b.n	80024ec <HAL_UART_Transmit+0x72>
 80024d6:	4643      	mov	r3, r8
 80024d8:	464a      	mov	r2, r9
 80024da:	2180      	movs	r1, #128	@ 0x80
 80024dc:	4620      	mov	r0, r4
 80024de:	f7ff ff6b 	bl	80023b8 <UART_WaitOnFlagUntilTimeout.constprop.0>
 80024e2:	b128      	cbz	r0, 80024f0 <HAL_UART_Transmit+0x76>
 80024e4:	2320      	movs	r3, #32
 80024e6:	2003      	movs	r0, #3
 80024e8:	f884 3041 	strb.w	r3, [r4, #65]	@ 0x41
 80024ec:	e8bd 83f8 	ldmia.w	sp!, {r3, r4, r5, r6, r7, r8, r9, pc}
 80024f0:	6822      	ldr	r2, [r4, #0]
 80024f2:	b94e      	cbnz	r6, 8002508 <HAL_UART_Transmit+0x8e>
 80024f4:	f835 3b02 	ldrh.w	r3, [r5], #2
 80024f8:	f3c3 0308 	ubfx	r3, r3, #0, #9
 80024fc:	6053      	str	r3, [r2, #4]
 80024fe:	8ce1      	ldrh	r1, [r4, #38]	@ 0x26
 8002500:	3901      	subs	r1, #1
 8002502:	b289      	uxth	r1, r1
 8002504:	84e1      	strh	r1, [r4, #38]	@ 0x26
 8002506:	e7d8      	b.n	80024ba <HAL_UART_Transmit+0x40>
 8002508:	f816 3b01 	ldrb.w	r3, [r6], #1
 800250c:	e7f6      	b.n	80024fc <HAL_UART_Transmit+0x82>
 800250e:	2002      	movs	r0, #2
 8002510:	e7ec      	b.n	80024ec <HAL_UART_Transmit+0x72>
 8002512:	2001      	movs	r0, #1
 8002514:	e7ea      	b.n	80024ec <HAL_UART_Transmit+0x72>

08002516 <HAL_UART_TxCpltCallback>:
 8002516:	4770      	bx	lr

08002518 <HAL_UART_RxCpltCallback>:
 8002518:	4770      	bx	lr

0800251a <HAL_UART_RxHalfCpltCallback>:
 800251a:	4770      	bx	lr

0800251c <HAL_UART_ErrorCallback>:
 800251c:	4770      	bx	lr

0800251e <UART_DMAError>:
 800251e:	b508      	push	{r3, lr}
 8002520:	6a40      	ldr	r0, [r0, #36]	@ 0x24
 8002522:	6803      	ldr	r3, [r0, #0]
 8002524:	695a      	ldr	r2, [r3, #20]
 8002526:	f890 1041 	ldrb.w	r1, [r0, #65]	@ 0x41
 800252a:	2921      	cmp	r1, #33	@ 0x21
 800252c:	d112      	bne.n	8002554 <UART_DMAError+0x36>
 800252e:	0612      	lsls	r2, r2, #24
 8002530:	d510      	bpl.n	8002554 <UART_DMAError+0x36>
 8002532:	2200      	movs	r2, #0
 8002534:	84c2      	strh	r2, [r0, #38]	@ 0x26
 8002536:	f103 020c 	add.w	r2, r3, #12
 800253a:	e852 2f00 	ldrex	r2, [r2]
 800253e:	f022 02c0 	bic.w	r2, r2, #192	@ 0xc0
 8002542:	f103 0c0c 	add.w	ip, r3, #12
 8002546:	e84c 2100 	strex	r1, r2, [ip]
 800254a:	2900      	cmp	r1, #0
 800254c:	d1f3      	bne.n	8002536 <UART_DMAError+0x18>
 800254e:	2220      	movs	r2, #32
 8002550:	f880 2041 	strb.w	r2, [r0, #65]	@ 0x41
 8002554:	695b      	ldr	r3, [r3, #20]
 8002556:	f890 2042 	ldrb.w	r2, [r0, #66]	@ 0x42
 800255a:	2a22      	cmp	r2, #34	@ 0x22
 800255c:	d105      	bne.n	800256a <UART_DMAError+0x4c>
 800255e:	065b      	lsls	r3, r3, #25
 8002560:	d503      	bpl.n	800256a <UART_DMAError+0x4c>
 8002562:	2300      	movs	r3, #0
 8002564:	85c3      	strh	r3, [r0, #46]	@ 0x2e
 8002566:	f7ff febf 	bl	80022e8 <UART_EndRxTransfer>
 800256a:	6c43      	ldr	r3, [r0, #68]	@ 0x44
 800256c:	f043 0310 	orr.w	r3, r3, #16
 8002570:	6443      	str	r3, [r0, #68]	@ 0x44
 8002572:	f7ff ffd3 	bl	800251c <HAL_UART_ErrorCallback>
 8002576:	bd08      	pop	{r3, pc}

08002578 <UART_DMAAbortOnError>:
 8002578:	b508      	push	{r3, lr}
 800257a:	2300      	movs	r3, #0
 800257c:	6a40      	ldr	r0, [r0, #36]	@ 0x24
 800257e:	85c3      	strh	r3, [r0, #46]	@ 0x2e
 8002580:	84c3      	strh	r3, [r0, #38]	@ 0x26
 8002582:	f7ff ffcb 	bl	800251c <HAL_UART_ErrorCallback>
 8002586:	bd08      	pop	{r3, pc}

08002588 <HAL_UARTEx_RxEventCallback>:
 8002588:	4770      	bx	lr

0800258a <UART_DMARxHalfCplt>:
 800258a:	b508      	push	{r3, lr}
 800258c:	2301      	movs	r3, #1
 800258e:	6a40      	ldr	r0, [r0, #36]	@ 0x24
 8002590:	6343      	str	r3, [r0, #52]	@ 0x34
 8002592:	6b03      	ldr	r3, [r0, #48]	@ 0x30
 8002594:	2b01      	cmp	r3, #1
 8002596:	d104      	bne.n	80025a2 <UART_DMARxHalfCplt+0x18>
 8002598:	8d81      	ldrh	r1, [r0, #44]	@ 0x2c
 800259a:	0849      	lsrs	r1, r1, #1
 800259c:	f7ff fff4 	bl	8002588 <HAL_UARTEx_RxEventCallback>
 80025a0:	bd08      	pop	{r3, pc}
 80025a2:	f7ff ffba 	bl	800251a <HAL_UART_RxHalfCpltCallback>
 80025a6:	e7fb      	b.n	80025a0 <UART_DMARxHalfCplt+0x16>

080025a8 <UART_DMAReceiveCplt>:
 80025a8:	b508      	push	{r3, lr}
 80025aa:	4603      	mov	r3, r0
 80025ac:	681b      	ldr	r3, [r3, #0]
 80025ae:	6a40      	ldr	r0, [r0, #36]	@ 0x24
 80025b0:	681b      	ldr	r3, [r3, #0]
 80025b2:	f013 0320 	ands.w	r3, r3, #32
 80025b6:	d137      	bne.n	8002628 <UART_DMAReceiveCplt+0x80>
 80025b8:	85c3      	strh	r3, [r0, #46]	@ 0x2e
 80025ba:	6802      	ldr	r2, [r0, #0]
 80025bc:	f102 030c 	add.w	r3, r2, #12
 80025c0:	e853 3f00 	ldrex	r3, [r3]
 80025c4:	f423 7380 	bic.w	r3, r3, #256	@ 0x100
 80025c8:	320c      	adds	r2, #12
 80025ca:	e842 3100 	strex	r1, r3, [r2]
 80025ce:	6803      	ldr	r3, [r0, #0]
 80025d0:	2900      	cmp	r1, #0
 80025d2:	d1f2      	bne.n	80025ba <UART_DMAReceiveCplt+0x12>
 80025d4:	f103 0214 	add.w	r2, r3, #20
 80025d8:	e852 2f00 	ldrex	r2, [r2]
 80025dc:	f022 0201 	bic.w	r2, r2, #1
 80025e0:	f103 0c14 	add.w	ip, r3, #20
 80025e4:	e84c 2100 	strex	r1, r2, [ip]
 80025e8:	2900      	cmp	r1, #0
 80025ea:	d1f3      	bne.n	80025d4 <UART_DMAReceiveCplt+0x2c>
 80025ec:	f103 0214 	add.w	r2, r3, #20
 80025f0:	e852 2f00 	ldrex	r2, [r2]
 80025f4:	f022 0240 	bic.w	r2, r2, #64	@ 0x40
 80025f8:	f103 0c14 	add.w	ip, r3, #20
 80025fc:	e84c 2100 	strex	r1, r2, [ip]
 8002600:	2900      	cmp	r1, #0
 8002602:	d1f3      	bne.n	80025ec <UART_DMAReceiveCplt+0x44>
 8002604:	2220      	movs	r2, #32
 8002606:	f880 2042 	strb.w	r2, [r0, #66]	@ 0x42
 800260a:	6b02      	ldr	r2, [r0, #48]	@ 0x30
 800260c:	2a01      	cmp	r2, #1
 800260e:	d10b      	bne.n	8002628 <UART_DMAReceiveCplt+0x80>
 8002610:	f103 020c 	add.w	r2, r3, #12
 8002614:	e852 2f00 	ldrex	r2, [r2]
 8002618:	f022 0210 	bic.w	r2, r2, #16
 800261c:	f103 0c0c 	add.w	ip, r3, #12
 8002620:	e84c 2100 	strex	r1, r2, [ip]
 8002624:	2900      	cmp	r1, #0
 8002626:	d1f3      	bne.n	8002610 <UART_DMAReceiveCplt+0x68>
 8002628:	2300      	movs	r3, #0
 800262a:	6343      	str	r3, [r0, #52]	@ 0x34
 800262c:	6b03      	ldr	r3, [r0, #48]	@ 0x30
 800262e:	2b01      	cmp	r3, #1
 8002630:	d103      	bne.n	800263a <UART_DMAReceiveCplt+0x92>
 8002632:	8d81      	ldrh	r1, [r0, #44]	@ 0x2c
 8002634:	f7ff ffa8 	bl	8002588 <HAL_UARTEx_RxEventCallback>
 8002638:	bd08      	pop	{r3, pc}
 800263a:	f7ff ff6d 	bl	8002518 <HAL_UART_RxCpltCallback>
 800263e:	e7fb      	b.n	8002638 <UART_DMAReceiveCplt+0x90>

08002640 <UART_Receive_IT.isra.0>:
 8002640:	f890 3042 	ldrb.w	r3, [r0, #66]	@ 0x42
 8002644:	b507      	push	{r0, r1, r2, lr}
 8002646:	2b22      	cmp	r3, #34	@ 0x22
 8002648:	d142      	bne.n	80026d0 <UART_Receive_IT.isra.0+0x90>
 800264a:	6881      	ldr	r1, [r0, #8]
 800264c:	6802      	ldr	r2, [r0, #0]
 800264e:	f5b1 5f80 	cmp.w	r1, #4096	@ 0x1000
 8002652:	6a83      	ldr	r3, [r0, #40]	@ 0x28
 8002654:	d13f      	bne.n	80026d6 <UART_Receive_IT.isra.0+0x96>
 8002656:	6901      	ldr	r1, [r0, #16]
 8002658:	2900      	cmp	r1, #0
 800265a:	d13f      	bne.n	80026dc <UART_Receive_IT.isra.0+0x9c>
 800265c:	6852      	ldr	r2, [r2, #4]
 800265e:	f3c2 0208 	ubfx	r2, r2, #0, #9
 8002662:	f823 2b02 	strh.w	r2, [r3], #2
 8002666:	6283      	str	r3, [r0, #40]	@ 0x28
 8002668:	8dc3      	ldrh	r3, [r0, #46]	@ 0x2e
 800266a:	3b01      	subs	r3, #1
 800266c:	b29b      	uxth	r3, r3
 800266e:	85c3      	strh	r3, [r0, #46]	@ 0x2e
 8002670:	2b00      	cmp	r3, #0
 8002672:	d12d      	bne.n	80026d0 <UART_Receive_IT.isra.0+0x90>
 8002674:	6802      	ldr	r2, [r0, #0]
 8002676:	68d1      	ldr	r1, [r2, #12]
 8002678:	f021 0120 	bic.w	r1, r1, #32
 800267c:	60d1      	str	r1, [r2, #12]
 800267e:	68d1      	ldr	r1, [r2, #12]
 8002680:	f421 7180 	bic.w	r1, r1, #256	@ 0x100
 8002684:	60d1      	str	r1, [r2, #12]
 8002686:	6951      	ldr	r1, [r2, #20]
 8002688:	f021 0101 	bic.w	r1, r1, #1
 800268c:	6151      	str	r1, [r2, #20]
 800268e:	2220      	movs	r2, #32
 8002690:	f880 2042 	strb.w	r2, [r0, #66]	@ 0x42
 8002694:	6343      	str	r3, [r0, #52]	@ 0x34
 8002696:	6b02      	ldr	r2, [r0, #48]	@ 0x30
 8002698:	2a01      	cmp	r2, #1
 800269a:	6802      	ldr	r2, [r0, #0]
 800269c:	d128      	bne.n	80026f0 <UART_Receive_IT.isra.0+0xb0>
 800269e:	6303      	str	r3, [r0, #48]	@ 0x30
 80026a0:	f102 030c 	add.w	r3, r2, #12
 80026a4:	e853 3f00 	ldrex	r3, [r3]
 80026a8:	f023 0310 	bic.w	r3, r3, #16
 80026ac:	f102 0c0c 	add.w	ip, r2, #12
 80026b0:	e84c 3100 	strex	r1, r3, [ip]
 80026b4:	2900      	cmp	r1, #0
 80026b6:	d1f3      	bne.n	80026a0 <UART_Receive_IT.isra.0+0x60>
 80026b8:	6813      	ldr	r3, [r2, #0]
 80026ba:	06db      	lsls	r3, r3, #27
 80026bc:	d505      	bpl.n	80026ca <UART_Receive_IT.isra.0+0x8a>
 80026be:	9101      	str	r1, [sp, #4]
 80026c0:	6813      	ldr	r3, [r2, #0]
 80026c2:	9301      	str	r3, [sp, #4]
 80026c4:	6853      	ldr	r3, [r2, #4]
 80026c6:	9301      	str	r3, [sp, #4]
 80026c8:	9b01      	ldr	r3, [sp, #4]
 80026ca:	8d81      	ldrh	r1, [r0, #44]	@ 0x2c
 80026cc:	f7ff ff5c 	bl	8002588 <HAL_UARTEx_RxEventCallback>
 80026d0:	b003      	add	sp, #12
 80026d2:	f85d fb04 	ldr.w	pc, [sp], #4
 80026d6:	b939      	cbnz	r1, 80026e8 <UART_Receive_IT.isra.0+0xa8>
 80026d8:	6901      	ldr	r1, [r0, #16]
 80026da:	b929      	cbnz	r1, 80026e8 <UART_Receive_IT.isra.0+0xa8>
 80026dc:	6852      	ldr	r2, [r2, #4]
 80026de:	b2d2      	uxtb	r2, r2
 80026e0:	701a      	strb	r2, [r3, #0]
 80026e2:	6a83      	ldr	r3, [r0, #40]	@ 0x28
 80026e4:	3301      	adds	r3, #1
 80026e6:	e7be      	b.n	8002666 <UART_Receive_IT.isra.0+0x26>
 80026e8:	6852      	ldr	r2, [r2, #4]
 80026ea:	f002 027f 	and.w	r2, r2, #127	@ 0x7f
 80026ee:	e7f7      	b.n	80026e0 <UART_Receive_IT.isra.0+0xa0>
 80026f0:	f7ff ff12 	bl	8002518 <HAL_UART_RxCpltCallback>
 80026f4:	e7ec      	b.n	80026d0 <UART_Receive_IT.isra.0+0x90>
	...

080026f8 <HAL_UART_IRQHandler>:
 80026f8:	6803      	ldr	r3, [r0, #0]
 80026fa:	b573      	push	{r0, r1, r4, r5, r6, lr}
 80026fc:	681a      	ldr	r2, [r3, #0]
 80026fe:	4604      	mov	r4, r0
 8002700:	0716      	lsls	r6, r2, #28
 8002702:	68d9      	ldr	r1, [r3, #12]
 8002704:	695d      	ldr	r5, [r3, #20]
 8002706:	d108      	bne.n	800271a <HAL_UART_IRQHandler+0x22>
 8002708:	0696      	lsls	r6, r2, #26
 800270a:	d568      	bpl.n	80027de <HAL_UART_IRQHandler+0xe6>
 800270c:	068d      	lsls	r5, r1, #26
 800270e:	d566      	bpl.n	80027de <HAL_UART_IRQHandler+0xe6>
 8002710:	b002      	add	sp, #8
 8002712:	e8bd 4070 	ldmia.w	sp!, {r4, r5, r6, lr}
 8002716:	f7ff bf93 	b.w	8002640 <UART_Receive_IT.isra.0>
 800271a:	f005 0001 	and.w	r0, r5, #1
 800271e:	f401 7590 	and.w	r5, r1, #288	@ 0x120
 8002722:	4305      	orrs	r5, r0
 8002724:	d05b      	beq.n	80027de <HAL_UART_IRQHandler+0xe6>
 8002726:	07d6      	lsls	r6, r2, #31
 8002728:	d505      	bpl.n	8002736 <HAL_UART_IRQHandler+0x3e>
 800272a:	05cd      	lsls	r5, r1, #23
 800272c:	bf42      	ittt	mi
 800272e:	6c63      	ldrmi	r3, [r4, #68]	@ 0x44
 8002730:	f043 0301 	orrmi.w	r3, r3, #1
 8002734:	6463      	strmi	r3, [r4, #68]	@ 0x44
 8002736:	0753      	lsls	r3, r2, #29
 8002738:	d504      	bpl.n	8002744 <HAL_UART_IRQHandler+0x4c>
 800273a:	b118      	cbz	r0, 8002744 <HAL_UART_IRQHandler+0x4c>
 800273c:	6c63      	ldr	r3, [r4, #68]	@ 0x44
 800273e:	f043 0302 	orr.w	r3, r3, #2
 8002742:	6463      	str	r3, [r4, #68]	@ 0x44
 8002744:	0796      	lsls	r6, r2, #30
 8002746:	d504      	bpl.n	8002752 <HAL_UART_IRQHandler+0x5a>
 8002748:	b118      	cbz	r0, 8002752 <HAL_UART_IRQHandler+0x5a>
 800274a:	6c63      	ldr	r3, [r4, #68]	@ 0x44
 800274c:	f043 0304 	orr.w	r3, r3, #4
 8002750:	6463      	str	r3, [r4, #68]	@ 0x44
 8002752:	0715      	lsls	r5, r2, #28
 8002754:	d507      	bpl.n	8002766 <HAL_UART_IRQHandler+0x6e>
 8002756:	f001 0320 	and.w	r3, r1, #32
 800275a:	4303      	orrs	r3, r0
 800275c:	bf1e      	ittt	ne
 800275e:	6c63      	ldrne	r3, [r4, #68]	@ 0x44
 8002760:	f043 0308 	orrne.w	r3, r3, #8
 8002764:	6463      	strne	r3, [r4, #68]	@ 0x44
 8002766:	6c63      	ldr	r3, [r4, #68]	@ 0x44
 8002768:	2b00      	cmp	r3, #0
 800276a:	d032      	beq.n	80027d2 <HAL_UART_IRQHandler+0xda>
 800276c:	0692      	lsls	r2, r2, #26
 800276e:	d504      	bpl.n	800277a <HAL_UART_IRQHandler+0x82>
 8002770:	068b      	lsls	r3, r1, #26
 8002772:	d502      	bpl.n	800277a <HAL_UART_IRQHandler+0x82>
 8002774:	4620      	mov	r0, r4
 8002776:	f7ff ff63 	bl	8002640 <UART_Receive_IT.isra.0>
 800277a:	6826      	ldr	r6, [r4, #0]
 800277c:	4620      	mov	r0, r4
 800277e:	6973      	ldr	r3, [r6, #20]
 8002780:	6c62      	ldr	r2, [r4, #68]	@ 0x44
 8002782:	f003 0340 	and.w	r3, r3, #64	@ 0x40
 8002786:	f002 0208 	and.w	r2, r2, #8
 800278a:	ea53 0502 	orrs.w	r5, r3, r2
 800278e:	d022      	beq.n	80027d6 <HAL_UART_IRQHandler+0xde>
 8002790:	f7ff fdaa 	bl	80022e8 <UART_EndRxTransfer>
 8002794:	6973      	ldr	r3, [r6, #20]
 8002796:	065e      	lsls	r6, r3, #25
 8002798:	d518      	bpl.n	80027cc <HAL_UART_IRQHandler+0xd4>
 800279a:	6822      	ldr	r2, [r4, #0]
 800279c:	f102 0314 	add.w	r3, r2, #20
 80027a0:	e853 3f00 	ldrex	r3, [r3]
 80027a4:	f023 0340 	bic.w	r3, r3, #64	@ 0x40
 80027a8:	3214      	adds	r2, #20
 80027aa:	e842 3100 	strex	r1, r3, [r2]
 80027ae:	2900      	cmp	r1, #0
 80027b0:	d1f3      	bne.n	800279a <HAL_UART_IRQHandler+0xa2>
 80027b2:	6be0      	ldr	r0, [r4, #60]	@ 0x3c
 80027b4:	b150      	cbz	r0, 80027cc <HAL_UART_IRQHandler+0xd4>
 80027b6:	4b74      	ldr	r3, [pc, #464]	@ (8002988 <HAL_UART_IRQHandler+0x290>)
 80027b8:	6343      	str	r3, [r0, #52]	@ 0x34
 80027ba:	f7fe f967 	bl	8000a8c <HAL_DMA_Abort_IT>
 80027be:	b140      	cbz	r0, 80027d2 <HAL_UART_IRQHandler+0xda>
 80027c0:	6be0      	ldr	r0, [r4, #60]	@ 0x3c
 80027c2:	6b43      	ldr	r3, [r0, #52]	@ 0x34
 80027c4:	b002      	add	sp, #8
 80027c6:	e8bd 4070 	ldmia.w	sp!, {r4, r5, r6, lr}
 80027ca:	4718      	bx	r3
 80027cc:	4620      	mov	r0, r4
 80027ce:	f7ff fea5 	bl	800251c <HAL_UART_ErrorCallback>
 80027d2:	b002      	add	sp, #8
 80027d4:	bd70      	pop	{r4, r5, r6, pc}
 80027d6:	f7ff fea1 	bl	800251c <HAL_UART_ErrorCallback>
 80027da:	6465      	str	r5, [r4, #68]	@ 0x44
 80027dc:	e7f9      	b.n	80027d2 <HAL_UART_IRQHandler+0xda>
 80027de:	6b20      	ldr	r0, [r4, #48]	@ 0x30
 80027e0:	2801      	cmp	r0, #1
 80027e2:	f040 8094 	bne.w	800290e <HAL_UART_IRQHandler+0x216>
 80027e6:	06d5      	lsls	r5, r2, #27
 80027e8:	f140 8091 	bpl.w	800290e <HAL_UART_IRQHandler+0x216>
 80027ec:	06c8      	lsls	r0, r1, #27
 80027ee:	f140 808e 	bpl.w	800290e <HAL_UART_IRQHandler+0x216>
 80027f2:	2200      	movs	r2, #0
 80027f4:	9201      	str	r2, [sp, #4]
 80027f6:	681a      	ldr	r2, [r3, #0]
 80027f8:	9201      	str	r2, [sp, #4]
 80027fa:	685a      	ldr	r2, [r3, #4]
 80027fc:	9201      	str	r2, [sp, #4]
 80027fe:	9a01      	ldr	r2, [sp, #4]
 8002800:	695a      	ldr	r2, [r3, #20]
 8002802:	0652      	lsls	r2, r2, #25
 8002804:	d54d      	bpl.n	80028a2 <HAL_UART_IRQHandler+0x1aa>
 8002806:	6be1      	ldr	r1, [r4, #60]	@ 0x3c
 8002808:	680a      	ldr	r2, [r1, #0]
 800280a:	6852      	ldr	r2, [r2, #4]
 800280c:	b292      	uxth	r2, r2
 800280e:	2a00      	cmp	r2, #0
 8002810:	d0df      	beq.n	80027d2 <HAL_UART_IRQHandler+0xda>
 8002812:	8da0      	ldrh	r0, [r4, #44]	@ 0x2c
 8002814:	4290      	cmp	r0, r2
 8002816:	d9dc      	bls.n	80027d2 <HAL_UART_IRQHandler+0xda>
 8002818:	85e2      	strh	r2, [r4, #46]	@ 0x2e
 800281a:	698a      	ldr	r2, [r1, #24]
 800281c:	2a20      	cmp	r2, #32
 800281e:	d036      	beq.n	800288e <HAL_UART_IRQHandler+0x196>
 8002820:	f103 020c 	add.w	r2, r3, #12
 8002824:	e852 2f00 	ldrex	r2, [r2]
 8002828:	f422 7280 	bic.w	r2, r2, #256	@ 0x100
 800282c:	f103 000c 	add.w	r0, r3, #12
 8002830:	e840 2100 	strex	r1, r2, [r0]
 8002834:	2900      	cmp	r1, #0
 8002836:	d1f3      	bne.n	8002820 <HAL_UART_IRQHandler+0x128>
 8002838:	f103 0214 	add.w	r2, r3, #20
 800283c:	e852 2f00 	ldrex	r2, [r2]
 8002840:	f022 0201 	bic.w	r2, r2, #1
 8002844:	f103 0014 	add.w	r0, r3, #20
 8002848:	e840 2100 	strex	r1, r2, [r0]
 800284c:	2900      	cmp	r1, #0
 800284e:	d1f3      	bne.n	8002838 <HAL_UART_IRQHandler+0x140>
 8002850:	f103 0214 	add.w	r2, r3, #20
 8002854:	e852 2f00 	ldrex	r2, [r2]
 8002858:	f022 0240 	bic.w	r2, r2, #64	@ 0x40
 800285c:	f103 0014 	add.w	r0, r3, #20
 8002860:	e840 2100 	strex	r1, r2, [r0]
 8002864:	2900      	cmp	r1, #0
 8002866:	d1f3      	bne.n	8002850 <HAL_UART_IRQHandler+0x158>
 8002868:	2220      	movs	r2, #32
 800286a:	f884 2042 	strb.w	r2, [r4, #66]	@ 0x42
 800286e:	6321      	str	r1, [r4, #48]	@ 0x30
 8002870:	f103 020c 	add.w	r2, r3, #12
 8002874:	e852 2f00 	ldrex	r2, [r2]
 8002878:	f022 0210 	bic.w	r2, r2, #16
 800287c:	f103 000c 	add.w	r0, r3, #12
 8002880:	e840 2100 	strex	r1, r2, [r0]
 8002884:	2900      	cmp	r1, #0
 8002886:	d1f3      	bne.n	8002870 <HAL_UART_IRQHandler+0x178>
 8002888:	6be0      	ldr	r0, [r4, #60]	@ 0x3c
 800288a:	f7fe f8df 	bl	8000a4c <HAL_DMA_Abort>
 800288e:	2302      	movs	r3, #2
 8002890:	6363      	str	r3, [r4, #52]	@ 0x34
 8002892:	8de3      	ldrh	r3, [r4, #46]	@ 0x2e
 8002894:	8da1      	ldrh	r1, [r4, #44]	@ 0x2c
 8002896:	1ac9      	subs	r1, r1, r3
 8002898:	b289      	uxth	r1, r1
 800289a:	4620      	mov	r0, r4
 800289c:	f7ff fe74 	bl	8002588 <HAL_UARTEx_RxEventCallback>
 80028a0:	e797      	b.n	80027d2 <HAL_UART_IRQHandler+0xda>
 80028a2:	8de2      	ldrh	r2, [r4, #46]	@ 0x2e
 80028a4:	8de0      	ldrh	r0, [r4, #46]	@ 0x2e
 80028a6:	8da1      	ldrh	r1, [r4, #44]	@ 0x2c
 80028a8:	b280      	uxth	r0, r0
 80028aa:	b292      	uxth	r2, r2
 80028ac:	2800      	cmp	r0, #0
 80028ae:	d090      	beq.n	80027d2 <HAL_UART_IRQHandler+0xda>
 80028b0:	1a89      	subs	r1, r1, r2
 80028b2:	b289      	uxth	r1, r1
 80028b4:	2900      	cmp	r1, #0
 80028b6:	d08c      	beq.n	80027d2 <HAL_UART_IRQHandler+0xda>
 80028b8:	f103 020c 	add.w	r2, r3, #12
 80028bc:	e852 2f00 	ldrex	r2, [r2]
 80028c0:	f422 7290 	bic.w	r2, r2, #288	@ 0x120
 80028c4:	f103 050c 	add.w	r5, r3, #12
 80028c8:	e845 2000 	strex	r0, r2, [r5]
 80028cc:	2800      	cmp	r0, #0
 80028ce:	d1f3      	bne.n	80028b8 <HAL_UART_IRQHandler+0x1c0>
 80028d0:	f103 0214 	add.w	r2, r3, #20
 80028d4:	e852 2f00 	ldrex	r2, [r2]
 80028d8:	f022 0201 	bic.w	r2, r2, #1
 80028dc:	f103 0514 	add.w	r5, r3, #20
 80028e0:	e845 2000 	strex	r0, r2, [r5]
 80028e4:	2800      	cmp	r0, #0
 80028e6:	d1f3      	bne.n	80028d0 <HAL_UART_IRQHandler+0x1d8>
 80028e8:	2220      	movs	r2, #32
 80028ea:	f884 2042 	strb.w	r2, [r4, #66]	@ 0x42
 80028ee:	6320      	str	r0, [r4, #48]	@ 0x30
 80028f0:	f103 020c 	add.w	r2, r3, #12
 80028f4:	e852 2f00 	ldrex	r2, [r2]
 80028f8:	f022 0210 	bic.w	r2, r2, #16
 80028fc:	f103 050c 	add.w	r5, r3, #12
 8002900:	e845 2000 	strex	r0, r2, [r5]
 8002904:	2800      	cmp	r0, #0
 8002906:	d1f3      	bne.n	80028f0 <HAL_UART_IRQHandler+0x1f8>
 8002908:	2302      	movs	r3, #2
 800290a:	6363      	str	r3, [r4, #52]	@ 0x34
 800290c:	e7c5      	b.n	800289a <HAL_UART_IRQHandler+0x1a2>
 800290e:	0616      	lsls	r6, r2, #24
 8002910:	d528      	bpl.n	8002964 <HAL_UART_IRQHandler+0x26c>
 8002912:	060d      	lsls	r5, r1, #24
 8002914:	d526      	bpl.n	8002964 <HAL_UART_IRQHandler+0x26c>
 8002916:	f894 2041 	ldrb.w	r2, [r4, #65]	@ 0x41
 800291a:	2a21      	cmp	r2, #33	@ 0x21
 800291c:	f47f af59 	bne.w	80027d2 <HAL_UART_IRQHandler+0xda>
 8002920:	68a1      	ldr	r1, [r4, #8]
 8002922:	6a22      	ldr	r2, [r4, #32]
 8002924:	f5b1 5f80 	cmp.w	r1, #4096	@ 0x1000
 8002928:	d117      	bne.n	800295a <HAL_UART_IRQHandler+0x262>
 800292a:	6921      	ldr	r1, [r4, #16]
 800292c:	b9a9      	cbnz	r1, 800295a <HAL_UART_IRQHandler+0x262>
 800292e:	f832 1b02 	ldrh.w	r1, [r2], #2
 8002932:	f3c1 0108 	ubfx	r1, r1, #0, #9
 8002936:	6059      	str	r1, [r3, #4]
 8002938:	6222      	str	r2, [r4, #32]
 800293a:	8ce2      	ldrh	r2, [r4, #38]	@ 0x26
 800293c:	3a01      	subs	r2, #1
 800293e:	b292      	uxth	r2, r2
 8002940:	84e2      	strh	r2, [r4, #38]	@ 0x26
 8002942:	2a00      	cmp	r2, #0
 8002944:	f47f af45 	bne.w	80027d2 <HAL_UART_IRQHandler+0xda>
 8002948:	68da      	ldr	r2, [r3, #12]
 800294a:	f022 0280 	bic.w	r2, r2, #128	@ 0x80
 800294e:	60da      	str	r2, [r3, #12]
 8002950:	68da      	ldr	r2, [r3, #12]
 8002952:	f042 0240 	orr.w	r2, r2, #64	@ 0x40
 8002956:	60da      	str	r2, [r3, #12]
 8002958:	e73b      	b.n	80027d2 <HAL_UART_IRQHandler+0xda>
 800295a:	1c51      	adds	r1, r2, #1
 800295c:	6221      	str	r1, [r4, #32]
 800295e:	7812      	ldrb	r2, [r2, #0]
 8002960:	605a      	str	r2, [r3, #4]
 8002962:	e7ea      	b.n	800293a <HAL_UART_IRQHandler+0x242>
 8002964:	0650      	lsls	r0, r2, #25
 8002966:	f57f af34 	bpl.w	80027d2 <HAL_UART_IRQHandler+0xda>
 800296a:	064a      	lsls	r2, r1, #25
 800296c:	f57f af31 	bpl.w	80027d2 <HAL_UART_IRQHandler+0xda>
 8002970:	68da      	ldr	r2, [r3, #12]
 8002972:	4620      	mov	r0, r4
 8002974:	f022 0240 	bic.w	r2, r2, #64	@ 0x40
 8002978:	60da      	str	r2, [r3, #12]
 800297a:	2320      	movs	r3, #32
 800297c:	f884 3041 	strb.w	r3, [r4, #65]	@ 0x41
 8002980:	f7ff fdc9 	bl	8002516 <HAL_UART_TxCpltCallback>
 8002984:	e725      	b.n	80027d2 <HAL_UART_IRQHandler+0xda>
 8002986:	bf00      	nop
 8002988:	08002579 	.word	0x08002579

0800298c <UART_Start_Receive_DMA>:
 800298c:	b573      	push	{r0, r1, r4, r5, r6, lr}
 800298e:	4613      	mov	r3, r2
 8002990:	8582      	strh	r2, [r0, #44]	@ 0x2c
 8002992:	2500      	movs	r5, #0
 8002994:	2222      	movs	r2, #34	@ 0x22
 8002996:	4604      	mov	r4, r0
 8002998:	6281      	str	r1, [r0, #40]	@ 0x28
 800299a:	6445      	str	r5, [r0, #68]	@ 0x44
 800299c:	f880 2042 	strb.w	r2, [r0, #66]	@ 0x42
 80029a0:	6bc0      	ldr	r0, [r0, #60]	@ 0x3c
 80029a2:	4a1d      	ldr	r2, [pc, #116]	@ (8002a18 <UART_Start_Receive_DMA+0x8c>)
 80029a4:	6826      	ldr	r6, [r4, #0]
 80029a6:	6282      	str	r2, [r0, #40]	@ 0x28
 80029a8:	4a1c      	ldr	r2, [pc, #112]	@ (8002a1c <UART_Start_Receive_DMA+0x90>)
 80029aa:	62c2      	str	r2, [r0, #44]	@ 0x2c
 80029ac:	4a1c      	ldr	r2, [pc, #112]	@ (8002a20 <UART_Start_Receive_DMA+0x94>)
 80029ae:	e9c0 250c 	strd	r2, r5, [r0, #48]	@ 0x30
 80029b2:	460a      	mov	r2, r1
 80029b4:	1d31      	adds	r1, r6, #4
 80029b6:	f7fe f80d 	bl	80009d4 <HAL_DMA_Start_IT>
 80029ba:	6823      	ldr	r3, [r4, #0]
 80029bc:	9501      	str	r5, [sp, #4]
 80029be:	681a      	ldr	r2, [r3, #0]
 80029c0:	9201      	str	r2, [sp, #4]
 80029c2:	685a      	ldr	r2, [r3, #4]
 80029c4:	9201      	str	r2, [sp, #4]
 80029c6:	9a01      	ldr	r2, [sp, #4]
 80029c8:	6922      	ldr	r2, [r4, #16]
 80029ca:	b15a      	cbz	r2, 80029e4 <UART_Start_Receive_DMA+0x58>
 80029cc:	f103 020c 	add.w	r2, r3, #12
 80029d0:	e852 2f00 	ldrex	r2, [r2]
 80029d4:	f442 7280 	orr.w	r2, r2, #256	@ 0x100
 80029d8:	f103 000c 	add.w	r0, r3, #12
 80029dc:	e840 2100 	strex	r1, r2, [r0]
 80029e0:	2900      	cmp	r1, #0
 80029e2:	d1f3      	bne.n	80029cc <UART_Start_Receive_DMA+0x40>
 80029e4:	f103 0214 	add.w	r2, r3, #20
 80029e8:	e852 2f00 	ldrex	r2, [r2]
 80029ec:	f042 0201 	orr.w	r2, r2, #1
 80029f0:	f103 0014 	add.w	r0, r3, #20
 80029f4:	e840 2100 	strex	r1, r2, [r0]
 80029f8:	2900      	cmp	r1, #0
 80029fa:	d1f3      	bne.n	80029e4 <UART_Start_Receive_DMA+0x58>
 80029fc:	f103 0214 	add.w	r2, r3, #20
 8002a00:	e852 2f00 	ldrex	r2, [r2]
 8002a04:	f042 0240 	orr.w	r2, r2, #64	@ 0x40
 8002a08:	f103 0114 	add.w	r1, r3, #20
 8002a0c:	e841 2000 	strex	r0, r2, [r1]
 8002a10:	2800      	cmp	r0, #0
 8002a12:	d1f3      	bne.n	80029fc <UART_Start_Receive_DMA+0x70>
 8002a14:	b002      	add	sp, #8
 8002a16:	bd70      	pop	{r4, r5, r6, pc}
 8002a18:	080025a9 	.word	0x080025a9
 8002a1c:	0800258b 	.word	0x0800258b
 8002a20:	0800251f 	.word	0x0800251f

08002a24 <HAL_UART_Receive_DMA>:
 8002a24:	b470      	push	{r4, r5, r6}
 8002a26:	f890 6042 	ldrb.w	r6, [r0, #66]	@ 0x42
 8002a2a:	2e20      	cmp	r6, #32
 8002a2c:	d106      	bne.n	8002a3c <HAL_UART_Receive_DMA+0x18>
 8002a2e:	b141      	cbz	r1, 8002a42 <HAL_UART_Receive_DMA+0x1e>
 8002a30:	b13a      	cbz	r2, 8002a42 <HAL_UART_Receive_DMA+0x1e>
 8002a32:	2400      	movs	r4, #0
 8002a34:	6304      	str	r4, [r0, #48]	@ 0x30
 8002a36:	bc70      	pop	{r4, r5, r6}
 8002a38:	f7ff bfa8 	b.w	800298c <UART_Start_Receive_DMA>
 8002a3c:	2002      	movs	r0, #2
 8002a3e:	bc70      	pop	{r4, r5, r6}
 8002a40:	4770      	bx	lr
 8002a42:	2001      	movs	r0, #1
 8002a44:	e7fb      	b.n	8002a3e <HAL_UART_Receive_DMA+0x1a>

08002a46 <osKernelStart>:
 8002a46:	b508      	push	{r3, lr}
 8002a48:	f000 fa4a 	bl	8002ee0 <vTaskStartScheduler>
 8002a4c:	2000      	movs	r0, #0
 8002a4e:	bd08      	pop	{r3, pc}

08002a50 <osThreadCreate>:
 8002a50:	b570      	push	{r4, r5, r6, lr}
 8002a52:	4605      	mov	r5, r0
 8002a54:	6946      	ldr	r6, [r0, #20]
 8002a56:	460b      	mov	r3, r1
 8002a58:	e9d0 1000 	ldrd	r1, r0, [r0]
 8002a5c:	692a      	ldr	r2, [r5, #16]
 8002a5e:	f9b5 4008 	ldrsh.w	r4, [r5, #8]
 8002a62:	b086      	sub	sp, #24
 8002a64:	b176      	cbz	r6, 8002a84 <osThreadCreate+0x34>
 8002a66:	69ad      	ldr	r5, [r5, #24]
 8002a68:	b165      	cbz	r5, 8002a84 <osThreadCreate+0x34>
 8002a6a:	2c84      	cmp	r4, #132	@ 0x84
 8002a6c:	bf0c      	ite	eq
 8002a6e:	2400      	moveq	r4, #0
 8002a70:	3403      	addne	r4, #3
 8002a72:	e9cd 6501 	strd	r6, r5, [sp, #4]
 8002a76:	9400      	str	r4, [sp, #0]
 8002a78:	f000 f9cc 	bl	8002e14 <xTaskCreateStatic>
 8002a7c:	9005      	str	r0, [sp, #20]
 8002a7e:	9805      	ldr	r0, [sp, #20]
 8002a80:	b006      	add	sp, #24
 8002a82:	bd70      	pop	{r4, r5, r6, pc}
 8002a84:	2c84      	cmp	r4, #132	@ 0x84
 8002a86:	bf0c      	ite	eq
 8002a88:	2400      	moveq	r4, #0
 8002a8a:	3403      	addne	r4, #3
 8002a8c:	ad05      	add	r5, sp, #20
 8002a8e:	e9cd 4500 	strd	r4, r5, [sp]
 8002a92:	b292      	uxth	r2, r2
 8002a94:	f000 f9f6 	bl	8002e84 <xTaskCreate>
 8002a98:	2801      	cmp	r0, #1
 8002a9a:	d0f0      	beq.n	8002a7e <osThreadCreate+0x2e>
 8002a9c:	2000      	movs	r0, #0
 8002a9e:	e7ef      	b.n	8002a80 <osThreadCreate+0x30>

08002aa0 <vListInitialise>:
 8002aa0:	f04f 32ff 	mov.w	r2, #4294967295
 8002aa4:	f100 0308 	add.w	r3, r0, #8
 8002aa8:	e9c0 2302 	strd	r2, r3, [r0, #8]
 8002aac:	6043      	str	r3, [r0, #4]
 8002aae:	6103      	str	r3, [r0, #16]
 8002ab0:	2300      	movs	r3, #0
 8002ab2:	6003      	str	r3, [r0, #0]
 8002ab4:	4770      	bx	lr

08002ab6 <vListInitialiseItem>:
 8002ab6:	2300      	movs	r3, #0
 8002ab8:	6103      	str	r3, [r0, #16]
 8002aba:	4770      	bx	lr

08002abc <vListInsertEnd>:
 8002abc:	6843      	ldr	r3, [r0, #4]
 8002abe:	689a      	ldr	r2, [r3, #8]
 8002ac0:	604b      	str	r3, [r1, #4]
 8002ac2:	608a      	str	r2, [r1, #8]
 8002ac4:	6051      	str	r1, [r2, #4]
 8002ac6:	6099      	str	r1, [r3, #8]
 8002ac8:	6803      	ldr	r3, [r0, #0]
 8002aca:	6108      	str	r0, [r1, #16]
 8002acc:	3301      	adds	r3, #1
 8002ace:	6003      	str	r3, [r0, #0]
 8002ad0:	4770      	bx	lr

08002ad2 <vListInsert>:
 8002ad2:	b530      	push	{r4, r5, lr}
 8002ad4:	680c      	ldr	r4, [r1, #0]
 8002ad6:	1c63      	adds	r3, r4, #1
 8002ad8:	d10a      	bne.n	8002af0 <vListInsert+0x1e>
 8002ada:	6903      	ldr	r3, [r0, #16]
 8002adc:	685a      	ldr	r2, [r3, #4]
 8002ade:	604a      	str	r2, [r1, #4]
 8002ae0:	6091      	str	r1, [r2, #8]
 8002ae2:	608b      	str	r3, [r1, #8]
 8002ae4:	6059      	str	r1, [r3, #4]
 8002ae6:	6803      	ldr	r3, [r0, #0]
 8002ae8:	6108      	str	r0, [r1, #16]
 8002aea:	3301      	adds	r3, #1
 8002aec:	6003      	str	r3, [r0, #0]
 8002aee:	bd30      	pop	{r4, r5, pc}
 8002af0:	f100 0208 	add.w	r2, r0, #8
 8002af4:	4613      	mov	r3, r2
 8002af6:	6852      	ldr	r2, [r2, #4]
 8002af8:	6815      	ldr	r5, [r2, #0]
 8002afa:	42a5      	cmp	r5, r4
 8002afc:	d9fa      	bls.n	8002af4 <vListInsert+0x22>
 8002afe:	e7ed      	b.n	8002adc <vListInsert+0xa>

08002b00 <uxListRemove>:
 8002b00:	6903      	ldr	r3, [r0, #16]
 8002b02:	e9d0 1201 	ldrd	r1, r2, [r0, #4]
 8002b06:	608a      	str	r2, [r1, #8]
 8002b08:	6051      	str	r1, [r2, #4]
 8002b0a:	6859      	ldr	r1, [r3, #4]
 8002b0c:	4281      	cmp	r1, r0
 8002b0e:	bf08      	it	eq
 8002b10:	605a      	streq	r2, [r3, #4]
 8002b12:	2200      	movs	r2, #0
 8002b14:	6102      	str	r2, [r0, #16]
 8002b16:	681a      	ldr	r2, [r3, #0]
 8002b18:	3a01      	subs	r2, #1
 8002b1a:	601a      	str	r2, [r3, #0]
 8002b1c:	6818      	ldr	r0, [r3, #0]
 8002b1e:	4770      	bx	lr

08002b20 <prvAddNewTaskToReadyList>:
 8002b20:	e92d 41f0 	stmdb	sp!, {r4, r5, r6, r7, r8, lr}
 8002b24:	4604      	mov	r4, r0
 8002b26:	f000 fc2d 	bl	8003384 <vPortEnterCritical>
 8002b2a:	4b2f      	ldr	r3, [pc, #188]	@ (8002be8 <prvAddNewTaskToReadyList+0xc8>)
 8002b2c:	4e2f      	ldr	r6, [pc, #188]	@ (8002bec <prvAddNewTaskToReadyList+0xcc>)
 8002b2e:	681a      	ldr	r2, [r3, #0]
 8002b30:	4f2f      	ldr	r7, [pc, #188]	@ (8002bf0 <prvAddNewTaskToReadyList+0xd0>)
 8002b32:	3201      	adds	r2, #1
 8002b34:	601a      	str	r2, [r3, #0]
 8002b36:	6835      	ldr	r5, [r6, #0]
 8002b38:	2d00      	cmp	r5, #0
 8002b3a:	d14a      	bne.n	8002bd2 <prvAddNewTaskToReadyList+0xb2>
 8002b3c:	6034      	str	r4, [r6, #0]
 8002b3e:	681b      	ldr	r3, [r3, #0]
 8002b40:	2b01      	cmp	r3, #1
 8002b42:	d11f      	bne.n	8002b84 <prvAddNewTaskToReadyList+0x64>
 8002b44:	46b8      	mov	r8, r7
 8002b46:	4640      	mov	r0, r8
 8002b48:	3501      	adds	r5, #1
 8002b4a:	f7ff ffa9 	bl	8002aa0 <vListInitialise>
 8002b4e:	2d07      	cmp	r5, #7
 8002b50:	f108 0814 	add.w	r8, r8, #20
 8002b54:	d1f7      	bne.n	8002b46 <prvAddNewTaskToReadyList+0x26>
 8002b56:	f8df 809c 	ldr.w	r8, [pc, #156]	@ 8002bf4 <prvAddNewTaskToReadyList+0xd4>
 8002b5a:	4d27      	ldr	r5, [pc, #156]	@ (8002bf8 <prvAddNewTaskToReadyList+0xd8>)
 8002b5c:	4640      	mov	r0, r8
 8002b5e:	f7ff ff9f 	bl	8002aa0 <vListInitialise>
 8002b62:	4628      	mov	r0, r5
 8002b64:	f7ff ff9c 	bl	8002aa0 <vListInitialise>
 8002b68:	4824      	ldr	r0, [pc, #144]	@ (8002bfc <prvAddNewTaskToReadyList+0xdc>)
 8002b6a:	f7ff ff99 	bl	8002aa0 <vListInitialise>
 8002b6e:	4824      	ldr	r0, [pc, #144]	@ (8002c00 <prvAddNewTaskToReadyList+0xe0>)
 8002b70:	f7ff ff96 	bl	8002aa0 <vListInitialise>
 8002b74:	4823      	ldr	r0, [pc, #140]	@ (8002c04 <prvAddNewTaskToReadyList+0xe4>)
 8002b76:	f7ff ff93 	bl	8002aa0 <vListInitialise>
 8002b7a:	4b23      	ldr	r3, [pc, #140]	@ (8002c08 <prvAddNewTaskToReadyList+0xe8>)
 8002b7c:	f8c3 8000 	str.w	r8, [r3]
 8002b80:	4b22      	ldr	r3, [pc, #136]	@ (8002c0c <prvAddNewTaskToReadyList+0xec>)
 8002b82:	601d      	str	r5, [r3, #0]
 8002b84:	4a22      	ldr	r2, [pc, #136]	@ (8002c10 <prvAddNewTaskToReadyList+0xf0>)
 8002b86:	4923      	ldr	r1, [pc, #140]	@ (8002c14 <prvAddNewTaskToReadyList+0xf4>)
 8002b88:	6813      	ldr	r3, [r2, #0]
 8002b8a:	6808      	ldr	r0, [r1, #0]
 8002b8c:	3301      	adds	r3, #1
 8002b8e:	6013      	str	r3, [r2, #0]
 8002b90:	2301      	movs	r3, #1
 8002b92:	6ae2      	ldr	r2, [r4, #44]	@ 0x2c
 8002b94:	4093      	lsls	r3, r2
 8002b96:	4303      	orrs	r3, r0
 8002b98:	2014      	movs	r0, #20
 8002b9a:	600b      	str	r3, [r1, #0]
 8002b9c:	fb00 7002 	mla	r0, r0, r2, r7
 8002ba0:	1d21      	adds	r1, r4, #4
 8002ba2:	f7ff ff8b 	bl	8002abc <vListInsertEnd>
 8002ba6:	f000 fc0d 	bl	80033c4 <vPortExitCritical>
 8002baa:	4b1b      	ldr	r3, [pc, #108]	@ (8002c18 <prvAddNewTaskToReadyList+0xf8>)
 8002bac:	681b      	ldr	r3, [r3, #0]
 8002bae:	b173      	cbz	r3, 8002bce <prvAddNewTaskToReadyList+0xae>
 8002bb0:	6833      	ldr	r3, [r6, #0]
 8002bb2:	6ada      	ldr	r2, [r3, #44]	@ 0x2c
 8002bb4:	6ae3      	ldr	r3, [r4, #44]	@ 0x2c
 8002bb6:	429a      	cmp	r2, r3
 8002bb8:	d209      	bcs.n	8002bce <prvAddNewTaskToReadyList+0xae>
 8002bba:	f04f 23e0 	mov.w	r3, #3758153728	@ 0xe000e000
 8002bbe:	f04f 5280 	mov.w	r2, #268435456	@ 0x10000000
 8002bc2:	f8c3 2d04 	str.w	r2, [r3, #3332]	@ 0xd04
 8002bc6:	f3bf 8f4f 	dsb	sy
 8002bca:	f3bf 8f6f 	isb	sy
 8002bce:	e8bd 81f0 	ldmia.w	sp!, {r4, r5, r6, r7, r8, pc}
 8002bd2:	4b11      	ldr	r3, [pc, #68]	@ (8002c18 <prvAddNewTaskToReadyList+0xf8>)
 8002bd4:	681a      	ldr	r2, [r3, #0]
 8002bd6:	6ae3      	ldr	r3, [r4, #44]	@ 0x2c
 8002bd8:	2a00      	cmp	r2, #0
 8002bda:	d1d3      	bne.n	8002b84 <prvAddNewTaskToReadyList+0x64>
 8002bdc:	6832      	ldr	r2, [r6, #0]
 8002bde:	6ad2      	ldr	r2, [r2, #44]	@ 0x2c
 8002be0:	429a      	cmp	r2, r3
 8002be2:	bf98      	it	ls
 8002be4:	6034      	strls	r4, [r6, #0]
 8002be6:	e7cd      	b.n	8002b84 <prvAddNewTaskToReadyList+0x64>
 8002be8:	200004e0 	.word	0x200004e0
 8002bec:	200005e0 	.word	0x200005e0
 8002bf0:	20000554 	.word	0x20000554
 8002bf4:	20000540 	.word	0x20000540
 8002bf8:	2000052c 	.word	0x2000052c
 8002bfc:	20000510 	.word	0x20000510
 8002c00:	200004fc 	.word	0x200004fc
 8002c04:	200004e4 	.word	0x200004e4
 8002c08:	20000528 	.word	0x20000528
 8002c0c:	20000524 	.word	0x20000524
 8002c10:	200004c4 	.word	0x200004c4
 8002c14:	200004d8 	.word	0x200004d8
 8002c18:	200004d4 	.word	0x200004d4

08002c1c <prvAddCurrentTaskToDelayedList>:
 8002c1c:	b5f8      	push	{r3, r4, r5, r6, r7, lr}
 8002c1e:	4b1a      	ldr	r3, [pc, #104]	@ (8002c88 <prvAddCurrentTaskToDelayedList+0x6c>)
 8002c20:	4d1a      	ldr	r5, [pc, #104]	@ (8002c8c <prvAddCurrentTaskToDelayedList+0x70>)
 8002c22:	4606      	mov	r6, r0
 8002c24:	681c      	ldr	r4, [r3, #0]
 8002c26:	6828      	ldr	r0, [r5, #0]
 8002c28:	460f      	mov	r7, r1
 8002c2a:	3004      	adds	r0, #4
 8002c2c:	f7ff ff68 	bl	8002b00 <uxListRemove>
 8002c30:	b940      	cbnz	r0, 8002c44 <prvAddCurrentTaskToDelayedList+0x28>
 8002c32:	682a      	ldr	r2, [r5, #0]
 8002c34:	4916      	ldr	r1, [pc, #88]	@ (8002c90 <prvAddCurrentTaskToDelayedList+0x74>)
 8002c36:	6ad0      	ldr	r0, [r2, #44]	@ 0x2c
 8002c38:	2201      	movs	r2, #1
 8002c3a:	680b      	ldr	r3, [r1, #0]
 8002c3c:	4082      	lsls	r2, r0
 8002c3e:	ea23 0302 	bic.w	r3, r3, r2
 8002c42:	600b      	str	r3, [r1, #0]
 8002c44:	1c73      	adds	r3, r6, #1
 8002c46:	d107      	bne.n	8002c58 <prvAddCurrentTaskToDelayedList+0x3c>
 8002c48:	b137      	cbz	r7, 8002c58 <prvAddCurrentTaskToDelayedList+0x3c>
 8002c4a:	6829      	ldr	r1, [r5, #0]
 8002c4c:	4811      	ldr	r0, [pc, #68]	@ (8002c94 <prvAddCurrentTaskToDelayedList+0x78>)
 8002c4e:	3104      	adds	r1, #4
 8002c50:	e8bd 40f8 	ldmia.w	sp!, {r3, r4, r5, r6, r7, lr}
 8002c54:	f7ff bf32 	b.w	8002abc <vListInsertEnd>
 8002c58:	682b      	ldr	r3, [r5, #0]
 8002c5a:	19a4      	adds	r4, r4, r6
 8002c5c:	605c      	str	r4, [r3, #4]
 8002c5e:	d307      	bcc.n	8002c70 <prvAddCurrentTaskToDelayedList+0x54>
 8002c60:	4b0d      	ldr	r3, [pc, #52]	@ (8002c98 <prvAddCurrentTaskToDelayedList+0x7c>)
 8002c62:	6818      	ldr	r0, [r3, #0]
 8002c64:	6829      	ldr	r1, [r5, #0]
 8002c66:	e8bd 40f8 	ldmia.w	sp!, {r3, r4, r5, r6, r7, lr}
 8002c6a:	3104      	adds	r1, #4
 8002c6c:	f7ff bf31 	b.w	8002ad2 <vListInsert>
 8002c70:	4b0a      	ldr	r3, [pc, #40]	@ (8002c9c <prvAddCurrentTaskToDelayedList+0x80>)
 8002c72:	6818      	ldr	r0, [r3, #0]
 8002c74:	6829      	ldr	r1, [r5, #0]
 8002c76:	3104      	adds	r1, #4
 8002c78:	f7ff ff2b 	bl	8002ad2 <vListInsert>
 8002c7c:	4b08      	ldr	r3, [pc, #32]	@ (8002ca0 <prvAddCurrentTaskToDelayedList+0x84>)
 8002c7e:	681a      	ldr	r2, [r3, #0]
 8002c80:	42a2      	cmp	r2, r4
 8002c82:	bf88      	it	hi
 8002c84:	601c      	strhi	r4, [r3, #0]
 8002c86:	bdf8      	pop	{r3, r4, r5, r6, r7, pc}
 8002c88:	200004dc 	.word	0x200004dc
 8002c8c:	200005e0 	.word	0x200005e0
 8002c90:	200004d8 	.word	0x200004d8
 8002c94:	200004e4 	.word	0x200004e4
 8002c98:	20000524 	.word	0x20000524
 8002c9c:	20000528 	.word	0x20000528
 8002ca0:	200004c0 	.word	0x200004c0

08002ca4 <prvResetNextTaskUnblockTime>:
 8002ca4:	4a06      	ldr	r2, [pc, #24]	@ (8002cc0 <prvResetNextTaskUnblockTime+0x1c>)
 8002ca6:	6813      	ldr	r3, [r2, #0]
 8002ca8:	6819      	ldr	r1, [r3, #0]
 8002caa:	4b06      	ldr	r3, [pc, #24]	@ (8002cc4 <prvResetNextTaskUnblockTime+0x20>)
 8002cac:	b919      	cbnz	r1, 8002cb6 <prvResetNextTaskUnblockTime+0x12>
 8002cae:	f04f 32ff 	mov.w	r2, #4294967295
 8002cb2:	601a      	str	r2, [r3, #0]
 8002cb4:	4770      	bx	lr
 8002cb6:	6812      	ldr	r2, [r2, #0]
 8002cb8:	68d2      	ldr	r2, [r2, #12]
 8002cba:	68d2      	ldr	r2, [r2, #12]
 8002cbc:	6852      	ldr	r2, [r2, #4]
 8002cbe:	e7f8      	b.n	8002cb2 <prvResetNextTaskUnblockTime+0xe>
 8002cc0:	20000528 	.word	0x20000528
 8002cc4:	200004c0 	.word	0x200004c0

08002cc8 <prvDeleteTCB>:
 8002cc8:	b510      	push	{r4, lr}
 8002cca:	4604      	mov	r4, r0
 8002ccc:	304c      	adds	r0, #76	@ 0x4c
 8002cce:	f000 ff57 	bl	8003b80 <_reclaim_reent>
 8002cd2:	f894 309d 	ldrb.w	r3, [r4, #157]	@ 0x9d
 8002cd6:	b93b      	cbnz	r3, 8002ce8 <prvDeleteTCB+0x20>
 8002cd8:	6b20      	ldr	r0, [r4, #48]	@ 0x30
 8002cda:	f000 fce9 	bl	80036b0 <vPortFree>
 8002cde:	4620      	mov	r0, r4
 8002ce0:	e8bd 4010 	ldmia.w	sp!, {r4, lr}
 8002ce4:	f000 bce4 	b.w	80036b0 <vPortFree>
 8002ce8:	2b01      	cmp	r3, #1
 8002cea:	d0f8      	beq.n	8002cde <prvDeleteTCB+0x16>
 8002cec:	2b02      	cmp	r3, #2
 8002cee:	d008      	beq.n	8002d02 <prvDeleteTCB+0x3a>
 8002cf0:	f04f 0350 	mov.w	r3, #80	@ 0x50
 8002cf4:	f383 8811 	msr	BASEPRI, r3
 8002cf8:	f3bf 8f6f 	isb	sy
 8002cfc:	f3bf 8f4f 	dsb	sy
 8002d00:	e7fe      	b.n	8002d00 <prvDeleteTCB+0x38>
 8002d02:	bd10      	pop	{r4, pc}

08002d04 <prvIdleTask>:
 8002d04:	b580      	push	{r7, lr}
 8002d06:	4c13      	ldr	r4, [pc, #76]	@ (8002d54 <prvIdleTask+0x50>)
 8002d08:	4f13      	ldr	r7, [pc, #76]	@ (8002d58 <prvIdleTask+0x54>)
 8002d0a:	4d14      	ldr	r5, [pc, #80]	@ (8002d5c <prvIdleTask+0x58>)
 8002d0c:	6823      	ldr	r3, [r4, #0]
 8002d0e:	b973      	cbnz	r3, 8002d2e <prvIdleTask+0x2a>
 8002d10:	4b13      	ldr	r3, [pc, #76]	@ (8002d60 <prvIdleTask+0x5c>)
 8002d12:	681b      	ldr	r3, [r3, #0]
 8002d14:	2b01      	cmp	r3, #1
 8002d16:	d9f8      	bls.n	8002d0a <prvIdleTask+0x6>
 8002d18:	f04f 23e0 	mov.w	r3, #3758153728	@ 0xe000e000
 8002d1c:	f04f 5280 	mov.w	r2, #268435456	@ 0x10000000
 8002d20:	f8c3 2d04 	str.w	r2, [r3, #3332]	@ 0xd04
 8002d24:	f3bf 8f4f 	dsb	sy
 8002d28:	f3bf 8f6f 	isb	sy
 8002d2c:	e7ed      	b.n	8002d0a <prvIdleTask+0x6>
 8002d2e:	f000 fb29 	bl	8003384 <vPortEnterCritical>
 8002d32:	68fb      	ldr	r3, [r7, #12]
 8002d34:	68de      	ldr	r6, [r3, #12]
 8002d36:	1d30      	adds	r0, r6, #4
 8002d38:	f7ff fee2 	bl	8002b00 <uxListRemove>
 8002d3c:	682b      	ldr	r3, [r5, #0]
 8002d3e:	3b01      	subs	r3, #1
 8002d40:	602b      	str	r3, [r5, #0]
 8002d42:	6823      	ldr	r3, [r4, #0]
 8002d44:	3b01      	subs	r3, #1
 8002d46:	6023      	str	r3, [r4, #0]
 8002d48:	f000 fb3c 	bl	80033c4 <vPortExitCritical>
 8002d4c:	4630      	mov	r0, r6
 8002d4e:	f7ff ffbb 	bl	8002cc8 <prvDeleteTCB>
 8002d52:	e7db      	b.n	8002d0c <prvIdleTask+0x8>
 8002d54:	200004f8 	.word	0x200004f8
 8002d58:	200004fc 	.word	0x200004fc
 8002d5c:	200004e0 	.word	0x200004e0
 8002d60:	20000554 	.word	0x20000554

08002d64 <prvInitialiseNewTask.constprop.0>:
 8002d64:	e92d 47f0 	stmdb	sp!, {r4, r5, r6, r7, r8, r9, sl, lr}
 8002d68:	f102 4280 	add.w	r2, r2, #1073741824	@ 0x40000000
 8002d6c:	e9dd 8409 	ldrd	r8, r4, [sp, #36]	@ 0x24
 8002d70:	6b25      	ldr	r5, [r4, #48]	@ 0x30
 8002d72:	3a01      	subs	r2, #1
 8002d74:	eb05 0582 	add.w	r5, r5, r2, lsl #2
 8002d78:	4606      	mov	r6, r0
 8002d7a:	461f      	mov	r7, r3
 8002d7c:	f025 0507 	bic.w	r5, r5, #7
 8002d80:	2900      	cmp	r1, #0
 8002d82:	d041      	beq.n	8002e08 <prvInitialiseNewTask.constprop.0+0xa4>
 8002d84:	1e4b      	subs	r3, r1, #1
 8002d86:	f104 0233 	add.w	r2, r4, #51	@ 0x33
 8002d8a:	310f      	adds	r1, #15
 8002d8c:	f813 0f01 	ldrb.w	r0, [r3, #1]!
 8002d90:	f802 0f01 	strb.w	r0, [r2, #1]!
 8002d94:	b108      	cbz	r0, 8002d9a <prvInitialiseNewTask.constprop.0+0x36>
 8002d96:	428b      	cmp	r3, r1
 8002d98:	d1f8      	bne.n	8002d8c <prvInitialiseNewTask.constprop.0+0x28>
 8002d9a:	2300      	movs	r3, #0
 8002d9c:	f884 3043 	strb.w	r3, [r4, #67]	@ 0x43
 8002da0:	9b08      	ldr	r3, [sp, #32]
 8002da2:	f04f 0a00 	mov.w	sl, #0
 8002da6:	2b06      	cmp	r3, #6
 8002da8:	bf28      	it	cs
 8002daa:	2306      	movcs	r3, #6
 8002dac:	1d20      	adds	r0, r4, #4
 8002dae:	62e3      	str	r3, [r4, #44]	@ 0x2c
 8002db0:	6463      	str	r3, [r4, #68]	@ 0x44
 8002db2:	f8c4 a048 	str.w	sl, [r4, #72]	@ 0x48
 8002db6:	4699      	mov	r9, r3
 8002db8:	f7ff fe7d 	bl	8002ab6 <vListInitialiseItem>
 8002dbc:	f104 0018 	add.w	r0, r4, #24
 8002dc0:	f7ff fe79 	bl	8002ab6 <vListInitialiseItem>
 8002dc4:	224c      	movs	r2, #76	@ 0x4c
 8002dc6:	f1c9 0307 	rsb	r3, r9, #7
 8002dca:	4651      	mov	r1, sl
 8002dcc:	61a3      	str	r3, [r4, #24]
 8002dce:	f8c4 a098 	str.w	sl, [r4, #152]	@ 0x98
 8002dd2:	18a0      	adds	r0, r4, r2
 8002dd4:	6124      	str	r4, [r4, #16]
 8002dd6:	6264      	str	r4, [r4, #36]	@ 0x24
 8002dd8:	f884 a09c 	strb.w	sl, [r4, #156]	@ 0x9c
 8002ddc:	f000 feb8 	bl	8003b50 <memset>
 8002de0:	4b0b      	ldr	r3, [pc, #44]	@ (8002e10 <prvInitialiseNewTask.constprop.0+0xac>)
 8002de2:	4631      	mov	r1, r6
 8002de4:	f103 0268 	add.w	r2, r3, #104	@ 0x68
 8002de8:	6523      	str	r3, [r4, #80]	@ 0x50
 8002dea:	33d0      	adds	r3, #208	@ 0xd0
 8002dec:	6562      	str	r2, [r4, #84]	@ 0x54
 8002dee:	4628      	mov	r0, r5
 8002df0:	463a      	mov	r2, r7
 8002df2:	65a3      	str	r3, [r4, #88]	@ 0x58
 8002df4:	f000 faa0 	bl	8003338 <pxPortInitialiseStack>
 8002df8:	6020      	str	r0, [r4, #0]
 8002dfa:	f1b8 0f00 	cmp.w	r8, #0
 8002dfe:	d001      	beq.n	8002e04 <prvInitialiseNewTask.constprop.0+0xa0>
 8002e00:	f8c8 4000 	str.w	r4, [r8]
 8002e04:	e8bd 87f0 	ldmia.w	sp!, {r4, r5, r6, r7, r8, r9, sl, pc}
 8002e08:	f884 1034 	strb.w	r1, [r4, #52]	@ 0x34
 8002e0c:	e7c8      	b.n	8002da0 <prvInitialiseNewTask.constprop.0+0x3c>
 8002e0e:	bf00      	nop
 8002e10:	2000120c 	.word	0x2000120c

08002e14 <xTaskCreateStatic>:
 8002e14:	b570      	push	{r4, r5, r6, lr}
 8002e16:	b086      	sub	sp, #24
 8002e18:	e9dd 540b 	ldrd	r5, r4, [sp, #44]	@ 0x2c
 8002e1c:	b945      	cbnz	r5, 8002e30 <xTaskCreateStatic+0x1c>
 8002e1e:	f04f 0350 	mov.w	r3, #80	@ 0x50
 8002e22:	f383 8811 	msr	BASEPRI, r3
 8002e26:	f3bf 8f6f 	isb	sy
 8002e2a:	f3bf 8f4f 	dsb	sy
 8002e2e:	e7fe      	b.n	8002e2e <xTaskCreateStatic+0x1a>
 8002e30:	b944      	cbnz	r4, 8002e44 <xTaskCreateStatic+0x30>
 8002e32:	f04f 0350 	mov.w	r3, #80	@ 0x50
 8002e36:	f383 8811 	msr	BASEPRI, r3
 8002e3a:	f3bf 8f6f 	isb	sy
 8002e3e:	f3bf 8f4f 	dsb	sy
 8002e42:	e7fe      	b.n	8002e42 <xTaskCreateStatic+0x2e>
 8002e44:	26a0      	movs	r6, #160	@ 0xa0
 8002e46:	9605      	str	r6, [sp, #20]
 8002e48:	9e05      	ldr	r6, [sp, #20]
 8002e4a:	2ea0      	cmp	r6, #160	@ 0xa0
 8002e4c:	d008      	beq.n	8002e60 <xTaskCreateStatic+0x4c>
 8002e4e:	f04f 0350 	mov.w	r3, #80	@ 0x50
 8002e52:	f383 8811 	msr	BASEPRI, r3
 8002e56:	f3bf 8f6f 	isb	sy
 8002e5a:	f3bf 8f4f 	dsb	sy
 8002e5e:	e7fe      	b.n	8002e5e <xTaskCreateStatic+0x4a>
 8002e60:	6325      	str	r5, [r4, #48]	@ 0x30
 8002e62:	2502      	movs	r5, #2
 8002e64:	f884 509d 	strb.w	r5, [r4, #157]	@ 0x9d
 8002e68:	ad04      	add	r5, sp, #16
 8002e6a:	9501      	str	r5, [sp, #4]
 8002e6c:	9d0a      	ldr	r5, [sp, #40]	@ 0x28
 8002e6e:	9402      	str	r4, [sp, #8]
 8002e70:	9500      	str	r5, [sp, #0]
 8002e72:	9e05      	ldr	r6, [sp, #20]
 8002e74:	f7ff ff76 	bl	8002d64 <prvInitialiseNewTask.constprop.0>
 8002e78:	4620      	mov	r0, r4
 8002e7a:	f7ff fe51 	bl	8002b20 <prvAddNewTaskToReadyList>
 8002e7e:	9804      	ldr	r0, [sp, #16]
 8002e80:	b006      	add	sp, #24
 8002e82:	bd70      	pop	{r4, r5, r6, pc}

08002e84 <xTaskCreate>:
 8002e84:	e92d 43f0 	stmdb	sp!, {r4, r5, r6, r7, r8, r9, lr}
 8002e88:	4607      	mov	r7, r0
 8002e8a:	b085      	sub	sp, #20
 8002e8c:	0090      	lsls	r0, r2, #2
 8002e8e:	4688      	mov	r8, r1
 8002e90:	4616      	mov	r6, r2
 8002e92:	4699      	mov	r9, r3
 8002e94:	f000 fb74 	bl	8003580 <pvPortMalloc>
 8002e98:	4605      	mov	r5, r0
 8002e9a:	b920      	cbnz	r0, 8002ea6 <xTaskCreate+0x22>
 8002e9c:	f04f 30ff 	mov.w	r0, #4294967295
 8002ea0:	b005      	add	sp, #20
 8002ea2:	e8bd 83f0 	ldmia.w	sp!, {r4, r5, r6, r7, r8, r9, pc}
 8002ea6:	20a0      	movs	r0, #160	@ 0xa0
 8002ea8:	f000 fb6a 	bl	8003580 <pvPortMalloc>
 8002eac:	4604      	mov	r4, r0
 8002eae:	b198      	cbz	r0, 8002ed8 <xTaskCreate+0x54>
 8002eb0:	2300      	movs	r3, #0
 8002eb2:	f880 309d 	strb.w	r3, [r0, #157]	@ 0x9d
 8002eb6:	9b0d      	ldr	r3, [sp, #52]	@ 0x34
 8002eb8:	6305      	str	r5, [r0, #48]	@ 0x30
 8002eba:	9301      	str	r3, [sp, #4]
 8002ebc:	9b0c      	ldr	r3, [sp, #48]	@ 0x30
 8002ebe:	4632      	mov	r2, r6
 8002ec0:	4641      	mov	r1, r8
 8002ec2:	9002      	str	r0, [sp, #8]
 8002ec4:	9300      	str	r3, [sp, #0]
 8002ec6:	4638      	mov	r0, r7
 8002ec8:	464b      	mov	r3, r9
 8002eca:	f7ff ff4b 	bl	8002d64 <prvInitialiseNewTask.constprop.0>
 8002ece:	4620      	mov	r0, r4
 8002ed0:	f7ff fe26 	bl	8002b20 <prvAddNewTaskToReadyList>
 8002ed4:	2001      	movs	r0, #1
 8002ed6:	e7e3      	b.n	8002ea0 <xTaskCreate+0x1c>
 8002ed8:	4628      	mov	r0, r5
 8002eda:	f000 fbe9 	bl	80036b0 <vPortFree>
 8002ede:	e7dd      	b.n	8002e9c <xTaskCreate+0x18>

08002ee0 <vTaskStartScheduler>:
 8002ee0:	b510      	push	{r4, lr}
 8002ee2:	2400      	movs	r4, #0
 8002ee4:	b088      	sub	sp, #32
 8002ee6:	aa07      	add	r2, sp, #28
 8002ee8:	a906      	add	r1, sp, #24
 8002eea:	a805      	add	r0, sp, #20
 8002eec:	e9cd 4405 	strd	r4, r4, [sp, #20]
 8002ef0:	f7fd f92e 	bl	8000150 <vApplicationGetIdleTaskMemory>
 8002ef4:	9b05      	ldr	r3, [sp, #20]
 8002ef6:	9a07      	ldr	r2, [sp, #28]
 8002ef8:	9302      	str	r3, [sp, #8]
 8002efa:	9b06      	ldr	r3, [sp, #24]
 8002efc:	4912      	ldr	r1, [pc, #72]	@ (8002f48 <vTaskStartScheduler+0x68>)
 8002efe:	e9cd 4300 	strd	r4, r3, [sp]
 8002f02:	4812      	ldr	r0, [pc, #72]	@ (8002f4c <vTaskStartScheduler+0x6c>)
 8002f04:	4623      	mov	r3, r4
 8002f06:	f7ff ff85 	bl	8002e14 <xTaskCreateStatic>
 8002f0a:	b1d0      	cbz	r0, 8002f42 <vTaskStartScheduler+0x62>
 8002f0c:	f04f 0350 	mov.w	r3, #80	@ 0x50
 8002f10:	f383 8811 	msr	BASEPRI, r3
 8002f14:	f3bf 8f6f 	isb	sy
 8002f18:	f3bf 8f4f 	dsb	sy
 8002f1c:	4b0c      	ldr	r3, [pc, #48]	@ (8002f50 <vTaskStartScheduler+0x70>)
 8002f1e:	4a0d      	ldr	r2, [pc, #52]	@ (8002f54 <vTaskStartScheduler+0x74>)
 8002f20:	681b      	ldr	r3, [r3, #0]
 8002f22:	334c      	adds	r3, #76	@ 0x4c
 8002f24:	6013      	str	r3, [r2, #0]
 8002f26:	f04f 32ff 	mov.w	r2, #4294967295
 8002f2a:	4b0b      	ldr	r3, [pc, #44]	@ (8002f58 <vTaskStartScheduler+0x78>)
 8002f2c:	601a      	str	r2, [r3, #0]
 8002f2e:	2201      	movs	r2, #1
 8002f30:	4b0a      	ldr	r3, [pc, #40]	@ (8002f5c <vTaskStartScheduler+0x7c>)
 8002f32:	601a      	str	r2, [r3, #0]
 8002f34:	4b0a      	ldr	r3, [pc, #40]	@ (8002f60 <vTaskStartScheduler+0x80>)
 8002f36:	601c      	str	r4, [r3, #0]
 8002f38:	b008      	add	sp, #32
 8002f3a:	e8bd 4010 	ldmia.w	sp!, {r4, lr}
 8002f3e:	f000 baa1 	b.w	8003484 <xPortStartScheduler>
 8002f42:	b008      	add	sp, #32
 8002f44:	bd10      	pop	{r4, pc}
 8002f46:	bf00      	nop
 8002f48:	08004857 	.word	0x08004857
 8002f4c:	08002d05 	.word	0x08002d05
 8002f50:	200005e0 	.word	0x200005e0
 8002f54:	2000001c 	.word	0x2000001c
 8002f58:	200004c0 	.word	0x200004c0
 8002f5c:	200004d4 	.word	0x200004d4
 8002f60:	200004dc 	.word	0x200004dc

08002f64 <vTaskSuspendAll>:
 8002f64:	4a02      	ldr	r2, [pc, #8]	@ (8002f70 <vTaskSuspendAll+0xc>)
 8002f66:	6813      	ldr	r3, [r2, #0]
 8002f68:	3301      	adds	r3, #1
 8002f6a:	6013      	str	r3, [r2, #0]
 8002f6c:	4770      	bx	lr
 8002f6e:	bf00      	nop
 8002f70:	200004bc 	.word	0x200004bc

08002f74 <xTaskGetTickCount>:
 8002f74:	4b01      	ldr	r3, [pc, #4]	@ (8002f7c <xTaskGetTickCount+0x8>)
 8002f76:	6818      	ldr	r0, [r3, #0]
 8002f78:	4770      	bx	lr
 8002f7a:	bf00      	nop
 8002f7c:	200004dc 	.word	0x200004dc

08002f80 <xTaskIncrementTick>:
 8002f80:	4b41      	ldr	r3, [pc, #260]	@ (8003088 <xTaskIncrementTick+0x108>)
 8002f82:	e92d 4ff7 	stmdb	sp!, {r0, r1, r2, r4, r5, r6, r7, r8, r9, sl, fp, lr}
 8002f86:	681b      	ldr	r3, [r3, #0]
 8002f88:	2b00      	cmp	r3, #0
 8002f8a:	d176      	bne.n	800307a <xTaskIncrementTick+0xfa>
 8002f8c:	4b3f      	ldr	r3, [pc, #252]	@ (800308c <xTaskIncrementTick+0x10c>)
 8002f8e:	681c      	ldr	r4, [r3, #0]
 8002f90:	3401      	adds	r4, #1
 8002f92:	601c      	str	r4, [r3, #0]
 8002f94:	b9bc      	cbnz	r4, 8002fc6 <xTaskIncrementTick+0x46>
 8002f96:	4b3e      	ldr	r3, [pc, #248]	@ (8003090 <xTaskIncrementTick+0x110>)
 8002f98:	681a      	ldr	r2, [r3, #0]
 8002f9a:	6812      	ldr	r2, [r2, #0]
 8002f9c:	b142      	cbz	r2, 8002fb0 <xTaskIncrementTick+0x30>
 8002f9e:	f04f 0350 	mov.w	r3, #80	@ 0x50
 8002fa2:	f383 8811 	msr	BASEPRI, r3
 8002fa6:	f3bf 8f6f 	isb	sy
 8002faa:	f3bf 8f4f 	dsb	sy
 8002fae:	e7fe      	b.n	8002fae <xTaskIncrementTick+0x2e>
 8002fb0:	4a38      	ldr	r2, [pc, #224]	@ (8003094 <xTaskIncrementTick+0x114>)
 8002fb2:	6819      	ldr	r1, [r3, #0]
 8002fb4:	6810      	ldr	r0, [r2, #0]
 8002fb6:	6018      	str	r0, [r3, #0]
 8002fb8:	6011      	str	r1, [r2, #0]
 8002fba:	4a37      	ldr	r2, [pc, #220]	@ (8003098 <xTaskIncrementTick+0x118>)
 8002fbc:	6813      	ldr	r3, [r2, #0]
 8002fbe:	3301      	adds	r3, #1
 8002fc0:	6013      	str	r3, [r2, #0]
 8002fc2:	f7ff fe6f 	bl	8002ca4 <prvResetNextTaskUnblockTime>
 8002fc6:	4d35      	ldr	r5, [pc, #212]	@ (800309c <xTaskIncrementTick+0x11c>)
 8002fc8:	f04f 0b00 	mov.w	fp, #0
 8002fcc:	682b      	ldr	r3, [r5, #0]
 8002fce:	4e34      	ldr	r6, [pc, #208]	@ (80030a0 <xTaskIncrementTick+0x120>)
 8002fd0:	429c      	cmp	r4, r3
 8002fd2:	4f34      	ldr	r7, [pc, #208]	@ (80030a4 <xTaskIncrementTick+0x124>)
 8002fd4:	d212      	bcs.n	8002ffc <xTaskIncrementTick+0x7c>
 8002fd6:	2114      	movs	r1, #20
 8002fd8:	683a      	ldr	r2, [r7, #0]
 8002fda:	6ad2      	ldr	r2, [r2, #44]	@ 0x2c
 8002fdc:	434a      	muls	r2, r1
 8002fde:	58b2      	ldr	r2, [r6, r2]
 8002fe0:	2a02      	cmp	r2, #2
 8002fe2:	4a31      	ldr	r2, [pc, #196]	@ (80030a8 <xTaskIncrementTick+0x128>)
 8002fe4:	bf28      	it	cs
 8002fe6:	f04f 0b01 	movcs.w	fp, #1
 8002fea:	6812      	ldr	r2, [r2, #0]
 8002fec:	2a00      	cmp	r2, #0
 8002fee:	bf18      	it	ne
 8002ff0:	f04f 0b01 	movne.w	fp, #1
 8002ff4:	4658      	mov	r0, fp
 8002ff6:	b003      	add	sp, #12
 8002ff8:	e8bd 8ff0 	ldmia.w	sp!, {r4, r5, r6, r7, r8, r9, sl, fp, pc}
 8002ffc:	f8df a090 	ldr.w	sl, [pc, #144]	@ 8003090 <xTaskIncrementTick+0x110>
 8003000:	f8df 90a8 	ldr.w	r9, [pc, #168]	@ 80030ac <xTaskIncrementTick+0x12c>
 8003004:	f8da 2000 	ldr.w	r2, [sl]
 8003008:	6812      	ldr	r2, [r2, #0]
 800300a:	b91a      	cbnz	r2, 8003014 <xTaskIncrementTick+0x94>
 800300c:	f04f 32ff 	mov.w	r2, #4294967295
 8003010:	602a      	str	r2, [r5, #0]
 8003012:	e7e0      	b.n	8002fd6 <xTaskIncrementTick+0x56>
 8003014:	f8da 2000 	ldr.w	r2, [sl]
 8003018:	68d2      	ldr	r2, [r2, #12]
 800301a:	f8d2 800c 	ldr.w	r8, [r2, #12]
 800301e:	f8d8 1004 	ldr.w	r1, [r8, #4]
 8003022:	428c      	cmp	r4, r1
 8003024:	d201      	bcs.n	800302a <xTaskIncrementTick+0xaa>
 8003026:	6029      	str	r1, [r5, #0]
 8003028:	e7d5      	b.n	8002fd6 <xTaskIncrementTick+0x56>
 800302a:	f108 0304 	add.w	r3, r8, #4
 800302e:	4618      	mov	r0, r3
 8003030:	9301      	str	r3, [sp, #4]
 8003032:	f7ff fd65 	bl	8002b00 <uxListRemove>
 8003036:	f8d8 1028 	ldr.w	r1, [r8, #40]	@ 0x28
 800303a:	b119      	cbz	r1, 8003044 <xTaskIncrementTick+0xc4>
 800303c:	f108 0018 	add.w	r0, r8, #24
 8003040:	f7ff fd5e 	bl	8002b00 <uxListRemove>
 8003044:	2201      	movs	r2, #1
 8003046:	f04f 0c14 	mov.w	ip, #20
 800304a:	f8d8 002c 	ldr.w	r0, [r8, #44]	@ 0x2c
 800304e:	f8d9 3000 	ldr.w	r3, [r9]
 8003052:	fa02 f100 	lsl.w	r1, r2, r0
 8003056:	4319      	orrs	r1, r3
 8003058:	fb0c 6000 	mla	r0, ip, r0, r6
 800305c:	f8c9 1000 	str.w	r1, [r9]
 8003060:	f108 0104 	add.w	r1, r8, #4
 8003064:	f7ff fd2a 	bl	8002abc <vListInsertEnd>
 8003068:	6838      	ldr	r0, [r7, #0]
 800306a:	f8d8 102c 	ldr.w	r1, [r8, #44]	@ 0x2c
 800306e:	6ac2      	ldr	r2, [r0, #44]	@ 0x2c
 8003070:	4291      	cmp	r1, r2
 8003072:	bf28      	it	cs
 8003074:	f04f 0b01 	movcs.w	fp, #1
 8003078:	e7c4      	b.n	8003004 <xTaskIncrementTick+0x84>
 800307a:	4a0d      	ldr	r2, [pc, #52]	@ (80030b0 <xTaskIncrementTick+0x130>)
 800307c:	f04f 0b00 	mov.w	fp, #0
 8003080:	6813      	ldr	r3, [r2, #0]
 8003082:	3301      	adds	r3, #1
 8003084:	6013      	str	r3, [r2, #0]
 8003086:	e7b5      	b.n	8002ff4 <xTaskIncrementTick+0x74>
 8003088:	200004bc 	.word	0x200004bc
 800308c:	200004dc 	.word	0x200004dc
 8003090:	20000528 	.word	0x20000528
 8003094:	20000524 	.word	0x20000524
 8003098:	200004c8 	.word	0x200004c8
 800309c:	200004c0 	.word	0x200004c0
 80030a0:	20000554 	.word	0x20000554
 80030a4:	200005e0 	.word	0x200005e0
 80030a8:	200004cc 	.word	0x200004cc
 80030ac:	200004d8 	.word	0x200004d8
 80030b0:	200004d0 	.word	0x200004d0

080030b4 <xTaskResumeAll>:
 80030b4:	e92d 43f8 	stmdb	sp!, {r3, r4, r5, r6, r7, r8, r9, lr}
 80030b8:	4c31      	ldr	r4, [pc, #196]	@ (8003180 <xTaskResumeAll+0xcc>)
 80030ba:	6823      	ldr	r3, [r4, #0]
 80030bc:	b943      	cbnz	r3, 80030d0 <xTaskResumeAll+0x1c>
 80030be:	f04f 0350 	mov.w	r3, #80	@ 0x50
 80030c2:	f383 8811 	msr	BASEPRI, r3
 80030c6:	f3bf 8f6f 	isb	sy
 80030ca:	f3bf 8f4f 	dsb	sy
 80030ce:	e7fe      	b.n	80030ce <xTaskResumeAll+0x1a>
 80030d0:	f000 f958 	bl	8003384 <vPortEnterCritical>
 80030d4:	6823      	ldr	r3, [r4, #0]
 80030d6:	3b01      	subs	r3, #1
 80030d8:	6023      	str	r3, [r4, #0]
 80030da:	6824      	ldr	r4, [r4, #0]
 80030dc:	b12c      	cbz	r4, 80030ea <xTaskResumeAll+0x36>
 80030de:	2400      	movs	r4, #0
 80030e0:	f000 f970 	bl	80033c4 <vPortExitCritical>
 80030e4:	4620      	mov	r0, r4
 80030e6:	e8bd 83f8 	ldmia.w	sp!, {r3, r4, r5, r6, r7, r8, r9, pc}
 80030ea:	4b26      	ldr	r3, [pc, #152]	@ (8003184 <xTaskResumeAll+0xd0>)
 80030ec:	681b      	ldr	r3, [r3, #0]
 80030ee:	2b00      	cmp	r3, #0
 80030f0:	d0f5      	beq.n	80030de <xTaskResumeAll+0x2a>
 80030f2:	4d25      	ldr	r5, [pc, #148]	@ (8003188 <xTaskResumeAll+0xd4>)
 80030f4:	4e25      	ldr	r6, [pc, #148]	@ (800318c <xTaskResumeAll+0xd8>)
 80030f6:	f8df 8098 	ldr.w	r8, [pc, #152]	@ 8003190 <xTaskResumeAll+0xdc>
 80030fa:	e01f      	b.n	800313c <xTaskResumeAll+0x88>
 80030fc:	68eb      	ldr	r3, [r5, #12]
 80030fe:	2701      	movs	r7, #1
 8003100:	68dc      	ldr	r4, [r3, #12]
 8003102:	f104 0904 	add.w	r9, r4, #4
 8003106:	f104 0018 	add.w	r0, r4, #24
 800310a:	f7ff fcf9 	bl	8002b00 <uxListRemove>
 800310e:	4648      	mov	r0, r9
 8003110:	f7ff fcf6 	bl	8002b00 <uxListRemove>
 8003114:	2014      	movs	r0, #20
 8003116:	6ae2      	ldr	r2, [r4, #44]	@ 0x2c
 8003118:	6831      	ldr	r1, [r6, #0]
 800311a:	fa07 f302 	lsl.w	r3, r7, r2
 800311e:	430b      	orrs	r3, r1
 8003120:	fb00 8002 	mla	r0, r0, r2, r8
 8003124:	4649      	mov	r1, r9
 8003126:	6033      	str	r3, [r6, #0]
 8003128:	f7ff fcc8 	bl	8002abc <vListInsertEnd>
 800312c:	4b19      	ldr	r3, [pc, #100]	@ (8003194 <xTaskResumeAll+0xe0>)
 800312e:	6ae2      	ldr	r2, [r4, #44]	@ 0x2c
 8003130:	681b      	ldr	r3, [r3, #0]
 8003132:	6adb      	ldr	r3, [r3, #44]	@ 0x2c
 8003134:	429a      	cmp	r2, r3
 8003136:	d301      	bcc.n	800313c <xTaskResumeAll+0x88>
 8003138:	4b17      	ldr	r3, [pc, #92]	@ (8003198 <xTaskResumeAll+0xe4>)
 800313a:	601f      	str	r7, [r3, #0]
 800313c:	682b      	ldr	r3, [r5, #0]
 800313e:	2b00      	cmp	r3, #0
 8003140:	d1dc      	bne.n	80030fc <xTaskResumeAll+0x48>
 8003142:	b10c      	cbz	r4, 8003148 <xTaskResumeAll+0x94>
 8003144:	f7ff fdae 	bl	8002ca4 <prvResetNextTaskUnblockTime>
 8003148:	4d14      	ldr	r5, [pc, #80]	@ (800319c <xTaskResumeAll+0xe8>)
 800314a:	682c      	ldr	r4, [r5, #0]
 800314c:	b144      	cbz	r4, 8003160 <xTaskResumeAll+0xac>
 800314e:	2701      	movs	r7, #1
 8003150:	4e11      	ldr	r6, [pc, #68]	@ (8003198 <xTaskResumeAll+0xe4>)
 8003152:	f7ff ff15 	bl	8002f80 <xTaskIncrementTick>
 8003156:	b100      	cbz	r0, 800315a <xTaskResumeAll+0xa6>
 8003158:	6037      	str	r7, [r6, #0]
 800315a:	3c01      	subs	r4, #1
 800315c:	d1f9      	bne.n	8003152 <xTaskResumeAll+0x9e>
 800315e:	602c      	str	r4, [r5, #0]
 8003160:	4b0d      	ldr	r3, [pc, #52]	@ (8003198 <xTaskResumeAll+0xe4>)
 8003162:	681b      	ldr	r3, [r3, #0]
 8003164:	2b00      	cmp	r3, #0
 8003166:	d0ba      	beq.n	80030de <xTaskResumeAll+0x2a>
 8003168:	f04f 23e0 	mov.w	r3, #3758153728	@ 0xe000e000
 800316c:	f04f 5280 	mov.w	r2, #268435456	@ 0x10000000
 8003170:	f8c3 2d04 	str.w	r2, [r3, #3332]	@ 0xd04
 8003174:	f3bf 8f4f 	dsb	sy
 8003178:	f3bf 8f6f 	isb	sy
 800317c:	2401      	movs	r4, #1
 800317e:	e7af      	b.n	80030e0 <xTaskResumeAll+0x2c>
 8003180:	200004bc 	.word	0x200004bc
 8003184:	200004e0 	.word	0x200004e0
 8003188:	20000510 	.word	0x20000510
 800318c:	200004d8 	.word	0x200004d8
 8003190:	20000554 	.word	0x20000554
 8003194:	200005e0 	.word	0x200005e0
 8003198:	200004cc 	.word	0x200004cc
 800319c:	200004d0 	.word	0x200004d0

080031a0 <vTaskDelayUntil>:
 80031a0:	b510      	push	{r4, lr}
 80031a2:	b940      	cbnz	r0, 80031b6 <vTaskDelayUntil+0x16>
 80031a4:	f04f 0350 	mov.w	r3, #80	@ 0x50
 80031a8:	f383 8811 	msr	BASEPRI, r3
 80031ac:	f3bf 8f6f 	isb	sy
 80031b0:	f3bf 8f4f 	dsb	sy
 80031b4:	e7fe      	b.n	80031b4 <vTaskDelayUntil+0x14>
 80031b6:	b941      	cbnz	r1, 80031ca <vTaskDelayUntil+0x2a>
 80031b8:	f04f 0350 	mov.w	r3, #80	@ 0x50
 80031bc:	f383 8811 	msr	BASEPRI, r3
 80031c0:	f3bf 8f6f 	isb	sy
 80031c4:	f3bf 8f4f 	dsb	sy
 80031c8:	e7fe      	b.n	80031c8 <vTaskDelayUntil+0x28>
 80031ca:	4b18      	ldr	r3, [pc, #96]	@ (800322c <vTaskDelayUntil+0x8c>)
 80031cc:	681b      	ldr	r3, [r3, #0]
 80031ce:	b143      	cbz	r3, 80031e2 <vTaskDelayUntil+0x42>
 80031d0:	f04f 0350 	mov.w	r3, #80	@ 0x50
 80031d4:	f383 8811 	msr	BASEPRI, r3
 80031d8:	f3bf 8f6f 	isb	sy
 80031dc:	f3bf 8f4f 	dsb	sy
 80031e0:	e7fe      	b.n	80031e0 <vTaskDelayUntil+0x40>
 80031e2:	f7ff febf 	bl	8002f64 <vTaskSuspendAll>
 80031e6:	4b12      	ldr	r3, [pc, #72]	@ (8003230 <vTaskDelayUntil+0x90>)
 80031e8:	6804      	ldr	r4, [r0, #0]
 80031ea:	681a      	ldr	r2, [r3, #0]
 80031ec:	1863      	adds	r3, r4, r1
 80031ee:	bf2c      	ite	cs
 80031f0:	2101      	movcs	r1, #1
 80031f2:	2100      	movcc	r1, #0
 80031f4:	4294      	cmp	r4, r2
 80031f6:	d90f      	bls.n	8003218 <vTaskDelayUntil+0x78>
 80031f8:	b979      	cbnz	r1, 800321a <vTaskDelayUntil+0x7a>
 80031fa:	6003      	str	r3, [r0, #0]
 80031fc:	f7ff ff5a 	bl	80030b4 <xTaskResumeAll>
 8003200:	b948      	cbnz	r0, 8003216 <vTaskDelayUntil+0x76>
 8003202:	f04f 23e0 	mov.w	r3, #3758153728	@ 0xe000e000
 8003206:	f04f 5280 	mov.w	r2, #268435456	@ 0x10000000
 800320a:	f8c3 2d04 	str.w	r2, [r3, #3332]	@ 0xd04
 800320e:	f3bf 8f4f 	dsb	sy
 8003212:	f3bf 8f6f 	isb	sy
 8003216:	bd10      	pop	{r4, pc}
 8003218:	b909      	cbnz	r1, 800321e <vTaskDelayUntil+0x7e>
 800321a:	429a      	cmp	r2, r3
 800321c:	d2ed      	bcs.n	80031fa <vTaskDelayUntil+0x5a>
 800321e:	6003      	str	r3, [r0, #0]
 8003220:	2100      	movs	r1, #0
 8003222:	1a98      	subs	r0, r3, r2
 8003224:	f7ff fcfa 	bl	8002c1c <prvAddCurrentTaskToDelayedList>
 8003228:	e7e8      	b.n	80031fc <vTaskDelayUntil+0x5c>
 800322a:	bf00      	nop
 800322c:	200004bc 	.word	0x200004bc
 8003230:	200004dc 	.word	0x200004dc

08003234 <vTaskSwitchContext>:
 8003234:	4b1a      	ldr	r3, [pc, #104]	@ (80032a0 <vTaskSwitchContext+0x6c>)
 8003236:	b510      	push	{r4, lr}
 8003238:	681a      	ldr	r2, [r3, #0]
 800323a:	4b1a      	ldr	r3, [pc, #104]	@ (80032a4 <vTaskSwitchContext+0x70>)
 800323c:	b112      	cbz	r2, 8003244 <vTaskSwitchContext+0x10>
 800323e:	2201      	movs	r2, #1
 8003240:	601a      	str	r2, [r3, #0]
 8003242:	bd10      	pop	{r4, pc}
 8003244:	601a      	str	r2, [r3, #0]
 8003246:	4b18      	ldr	r3, [pc, #96]	@ (80032a8 <vTaskSwitchContext+0x74>)
 8003248:	681a      	ldr	r2, [r3, #0]
 800324a:	fab2 f282 	clz	r2, r2
 800324e:	2314      	movs	r3, #20
 8003250:	b2d2      	uxtb	r2, r2
 8003252:	f1c2 021f 	rsb	r2, r2, #31
 8003256:	4353      	muls	r3, r2
 8003258:	4914      	ldr	r1, [pc, #80]	@ (80032ac <vTaskSwitchContext+0x78>)
 800325a:	58cc      	ldr	r4, [r1, r3]
 800325c:	18c8      	adds	r0, r1, r3
 800325e:	b944      	cbnz	r4, 8003272 <vTaskSwitchContext+0x3e>
 8003260:	f04f 0350 	mov.w	r3, #80	@ 0x50
 8003264:	f383 8811 	msr	BASEPRI, r3
 8003268:	f3bf 8f6f 	isb	sy
 800326c:	f3bf 8f4f 	dsb	sy
 8003270:	e7fe      	b.n	8003270 <vTaskSwitchContext+0x3c>
 8003272:	6844      	ldr	r4, [r0, #4]
 8003274:	3308      	adds	r3, #8
 8003276:	6864      	ldr	r4, [r4, #4]
 8003278:	440b      	add	r3, r1
 800327a:	429c      	cmp	r4, r3
 800327c:	bf08      	it	eq
 800327e:	6863      	ldreq	r3, [r4, #4]
 8003280:	6044      	str	r4, [r0, #4]
 8003282:	bf08      	it	eq
 8003284:	6043      	streq	r3, [r0, #4]
 8003286:	2314      	movs	r3, #20
 8003288:	fb03 1102 	mla	r1, r3, r2, r1
 800328c:	684b      	ldr	r3, [r1, #4]
 800328e:	68da      	ldr	r2, [r3, #12]
 8003290:	4b07      	ldr	r3, [pc, #28]	@ (80032b0 <vTaskSwitchContext+0x7c>)
 8003292:	601a      	str	r2, [r3, #0]
 8003294:	681b      	ldr	r3, [r3, #0]
 8003296:	4a07      	ldr	r2, [pc, #28]	@ (80032b4 <vTaskSwitchContext+0x80>)
 8003298:	334c      	adds	r3, #76	@ 0x4c
 800329a:	6013      	str	r3, [r2, #0]
 800329c:	e7d1      	b.n	8003242 <vTaskSwitchContext+0xe>
 800329e:	bf00      	nop
 80032a0:	200004bc 	.word	0x200004bc
 80032a4:	200004cc 	.word	0x200004cc
 80032a8:	200004d8 	.word	0x200004d8
 80032ac:	20000554 	.word	0x20000554
 80032b0:	200005e0 	.word	0x200005e0
 80032b4:	2000001c 	.word	0x2000001c

080032b8 <xTaskGetSchedulerState>:
 80032b8:	4b05      	ldr	r3, [pc, #20]	@ (80032d0 <xTaskGetSchedulerState+0x18>)
 80032ba:	681b      	ldr	r3, [r3, #0]
 80032bc:	b133      	cbz	r3, 80032cc <xTaskGetSchedulerState+0x14>
 80032be:	4b05      	ldr	r3, [pc, #20]	@ (80032d4 <xTaskGetSchedulerState+0x1c>)
 80032c0:	6818      	ldr	r0, [r3, #0]
 80032c2:	fab0 f080 	clz	r0, r0
 80032c6:	0940      	lsrs	r0, r0, #5
 80032c8:	0040      	lsls	r0, r0, #1
 80032ca:	4770      	bx	lr
 80032cc:	2001      	movs	r0, #1
 80032ce:	4770      	bx	lr
 80032d0:	200004d4 	.word	0x200004d4
 80032d4:	200004bc 	.word	0x200004bc

080032d8 <prvPortStartFirstTask>:
 80032d8:	4806      	ldr	r0, [pc, #24]	@ (80032f4 <prvPortStartFirstTask+0x1c>)
 80032da:	6800      	ldr	r0, [r0, #0]
 80032dc:	6800      	ldr	r0, [r0, #0]
 80032de:	f380 8808 	msr	MSP, r0
 80032e2:	b662      	cpsie	i
 80032e4:	b661      	cpsie	f
 80032e6:	f3bf 8f4f 	dsb	sy
 80032ea:	f3bf 8f6f 	isb	sy
 80032ee:	df00      	svc	0
 80032f0:	bf00      	nop
 80032f2:	0000      	.short	0x0000
 80032f4:	e000ed08 	.word	0xe000ed08

080032f8 <prvTaskExitError>:
 80032f8:	2300      	movs	r3, #0
 80032fa:	b082      	sub	sp, #8
 80032fc:	9301      	str	r3, [sp, #4]
 80032fe:	4b0d      	ldr	r3, [pc, #52]	@ (8003334 <prvTaskExitError+0x3c>)
 8003300:	681b      	ldr	r3, [r3, #0]
 8003302:	3301      	adds	r3, #1
 8003304:	d008      	beq.n	8003318 <prvTaskExitError+0x20>
 8003306:	f04f 0350 	mov.w	r3, #80	@ 0x50
 800330a:	f383 8811 	msr	BASEPRI, r3
 800330e:	f3bf 8f6f 	isb	sy
 8003312:	f3bf 8f4f 	dsb	sy
 8003316:	e7fe      	b.n	8003316 <prvTaskExitError+0x1e>
 8003318:	f04f 0350 	mov.w	r3, #80	@ 0x50
 800331c:	f383 8811 	msr	BASEPRI, r3
 8003320:	f3bf 8f6f 	isb	sy
 8003324:	f3bf 8f4f 	dsb	sy
 8003328:	9b01      	ldr	r3, [sp, #4]
 800332a:	2b00      	cmp	r3, #0
 800332c:	d0fc      	beq.n	8003328 <prvTaskExitError+0x30>
 800332e:	b002      	add	sp, #8
 8003330:	4770      	bx	lr
 8003332:	bf00      	nop
 8003334:	2000000c 	.word	0x2000000c

08003338 <pxPortInitialiseStack>:
 8003338:	f04f 7380 	mov.w	r3, #16777216	@ 0x1000000
 800333c:	f840 3c04 	str.w	r3, [r0, #-4]
 8003340:	4b05      	ldr	r3, [pc, #20]	@ (8003358 <pxPortInitialiseStack+0x20>)
 8003342:	f021 0101 	bic.w	r1, r1, #1
 8003346:	f840 1c08 	str.w	r1, [r0, #-8]
 800334a:	f840 3c0c 	str.w	r3, [r0, #-12]
 800334e:	f840 2c20 	str.w	r2, [r0, #-32]
 8003352:	3840      	subs	r0, #64	@ 0x40
 8003354:	4770      	bx	lr
 8003356:	bf00      	nop
 8003358:	080032f9 	.word	0x080032f9
 800335c:	00000000 	.word	0x00000000

08003360 <SVC_Handler>:
 8003360:	4b07      	ldr	r3, [pc, #28]	@ (8003380 <pxCurrentTCBConst2>)
 8003362:	6819      	ldr	r1, [r3, #0]
 8003364:	6808      	ldr	r0, [r1, #0]
 8003366:	e8b0 0ff0 	ldmia.w	r0!, {r4, r5, r6, r7, r8, r9, sl, fp}
 800336a:	f380 8809 	msr	PSP, r0
 800336e:	f3bf 8f6f 	isb	sy
 8003372:	f04f 0000 	mov.w	r0, #0
 8003376:	f380 8811 	msr	BASEPRI, r0
 800337a:	f04e 0e0d 	orr.w	lr, lr, #13
 800337e:	4770      	bx	lr

08003380 <pxCurrentTCBConst2>:
 8003380:	200005e0 	.word	0x200005e0

08003384 <vPortEnterCritical>:
 8003384:	f04f 0350 	mov.w	r3, #80	@ 0x50
 8003388:	f383 8811 	msr	BASEPRI, r3
 800338c:	f3bf 8f6f 	isb	sy
 8003390:	f3bf 8f4f 	dsb	sy
 8003394:	4a0a      	ldr	r2, [pc, #40]	@ (80033c0 <vPortEnterCritical+0x3c>)
 8003396:	6813      	ldr	r3, [r2, #0]
 8003398:	3301      	adds	r3, #1
 800339a:	2b01      	cmp	r3, #1
 800339c:	6013      	str	r3, [r2, #0]
 800339e:	d10e      	bne.n	80033be <vPortEnterCritical+0x3a>
 80033a0:	f04f 23e0 	mov.w	r3, #3758153728	@ 0xe000e000
 80033a4:	f8d3 3d04 	ldr.w	r3, [r3, #3332]	@ 0xd04
 80033a8:	b2db      	uxtb	r3, r3
 80033aa:	b143      	cbz	r3, 80033be <vPortEnterCritical+0x3a>
 80033ac:	f04f 0350 	mov.w	r3, #80	@ 0x50
 80033b0:	f383 8811 	msr	BASEPRI, r3
 80033b4:	f3bf 8f6f 	isb	sy
 80033b8:	f3bf 8f4f 	dsb	sy
 80033bc:	e7fe      	b.n	80033bc <vPortEnterCritical+0x38>
 80033be:	4770      	bx	lr
 80033c0:	2000000c 	.word	0x2000000c

080033c4 <vPortExitCritical>:
 80033c4:	4a08      	ldr	r2, [pc, #32]	@ (80033e8 <vPortExitCritical+0x24>)
 80033c6:	6813      	ldr	r3, [r2, #0]
 80033c8:	b943      	cbnz	r3, 80033dc <vPortExitCritical+0x18>
 80033ca:	f04f 0350 	mov.w	r3, #80	@ 0x50
 80033ce:	f383 8811 	msr	BASEPRI, r3
 80033d2:	f3bf 8f6f 	isb	sy
 80033d6:	f3bf 8f4f 	dsb	sy
 80033da:	e7fe      	b.n	80033da <vPortExitCritical+0x16>
 80033dc:	3b01      	subs	r3, #1
 80033de:	6013      	str	r3, [r2, #0]
 80033e0:	b90b      	cbnz	r3, 80033e6 <vPortExitCritical+0x22>
 80033e2:	f383 8811 	msr	BASEPRI, r3
 80033e6:	4770      	bx	lr
 80033e8:	2000000c 	.word	0x2000000c
 80033ec:	00000000 	.word	0x00000000

080033f0 <PendSV_Handler>:
 80033f0:	f3ef 8009 	mrs	r0, PSP
 80033f4:	f3bf 8f6f 	isb	sy
 80033f8:	4b0d      	ldr	r3, [pc, #52]	@ (8003430 <pxCurrentTCBConst>)
 80033fa:	681a      	ldr	r2, [r3, #0]
 80033fc:	e920 0ff0 	stmdb	r0!, {r4, r5, r6, r7, r8, r9, sl, fp}
 8003400:	6010      	str	r0, [r2, #0]
 8003402:	e92d 4008 	stmdb	sp!, {r3, lr}
 8003406:	f04f 0050 	mov.w	r0, #80	@ 0x50
 800340a:	f380 8811 	msr	BASEPRI, r0
 800340e:	f7ff ff11 	bl	8003234 <vTaskSwitchContext>
 8003412:	f04f 0000 	mov.w	r0, #0
 8003416:	f380 8811 	msr	BASEPRI, r0
 800341a:	e8bd 4008 	ldmia.w	sp!, {r3, lr}
 800341e:	6819      	ldr	r1, [r3, #0]
 8003420:	6808      	ldr	r0, [r1, #0]
 8003422:	e8b0 0ff0 	ldmia.w	r0!, {r4, r5, r6, r7, r8, r9, sl, fp}
 8003426:	f380 8809 	msr	PSP, r0
 800342a:	f3bf 8f6f 	isb	sy
 800342e:	4770      	bx	lr

08003430 <pxCurrentTCBConst>:
 8003430:	200005e0 	.word	0x200005e0

08003434 <xPortSysTickHandler>:
 8003434:	b508      	push	{r3, lr}
 8003436:	f04f 0350 	mov.w	r3, #80	@ 0x50
 800343a:	f383 8811 	msr	BASEPRI, r3
 800343e:	f3bf 8f6f 	isb	sy
 8003442:	f3bf 8f4f 	dsb	sy
 8003446:	f7ff fd9b 	bl	8002f80 <xTaskIncrementTick>
 800344a:	b128      	cbz	r0, 8003458 <xPortSysTickHandler+0x24>
 800344c:	f04f 23e0 	mov.w	r3, #3758153728	@ 0xe000e000
 8003450:	f04f 5280 	mov.w	r2, #268435456	@ 0x10000000
 8003454:	f8c3 2d04 	str.w	r2, [r3, #3332]	@ 0xd04
 8003458:	2300      	movs	r3, #0
 800345a:	f383 8811 	msr	BASEPRI, r3
 800345e:	bd08      	pop	{r3, pc}

08003460 <vPortSetupTimerInterrupt>:
 8003460:	f04f 22e0 	mov.w	r2, #3758153728	@ 0xe000e000
 8003464:	2300      	movs	r3, #0
 8003466:	f44f 717a 	mov.w	r1, #1000	@ 0x3e8
 800346a:	6113      	str	r3, [r2, #16]
 800346c:	6193      	str	r3, [r2, #24]
 800346e:	4b04      	ldr	r3, [pc, #16]	@ (8003480 <vPortSetupTimerInterrupt+0x20>)
 8003470:	681b      	ldr	r3, [r3, #0]
 8003472:	fbb3 f3f1 	udiv	r3, r3, r1
 8003476:	3b01      	subs	r3, #1
 8003478:	6153      	str	r3, [r2, #20]
 800347a:	2307      	movs	r3, #7
 800347c:	6113      	str	r3, [r2, #16]
 800347e:	4770      	bx	lr
 8003480:	20000000 	.word	0x20000000

08003484 <xPortStartScheduler>:
 8003484:	b513      	push	{r0, r1, r4, lr}
 8003486:	4b27      	ldr	r3, [pc, #156]	@ (8003524 <xPortStartScheduler+0xa0>)
 8003488:	781a      	ldrb	r2, [r3, #0]
 800348a:	b2d2      	uxtb	r2, r2
 800348c:	9201      	str	r2, [sp, #4]
 800348e:	22ff      	movs	r2, #255	@ 0xff
 8003490:	701a      	strb	r2, [r3, #0]
 8003492:	781b      	ldrb	r3, [r3, #0]
 8003494:	4a24      	ldr	r2, [pc, #144]	@ (8003528 <xPortStartScheduler+0xa4>)
 8003496:	b2db      	uxtb	r3, r3
 8003498:	f88d 3003 	strb.w	r3, [sp, #3]
 800349c:	f89d 3003 	ldrb.w	r3, [sp, #3]
 80034a0:	f003 0350 	and.w	r3, r3, #80	@ 0x50
 80034a4:	7013      	strb	r3, [r2, #0]
 80034a6:	2307      	movs	r3, #7
 80034a8:	4a20      	ldr	r2, [pc, #128]	@ (800352c <xPortStartScheduler+0xa8>)
 80034aa:	6013      	str	r3, [r2, #0]
 80034ac:	f89d 1003 	ldrb.w	r1, [sp, #3]
 80034b0:	6813      	ldr	r3, [r2, #0]
 80034b2:	0609      	lsls	r1, r1, #24
 80034b4:	d40a      	bmi.n	80034cc <xPortStartScheduler+0x48>
 80034b6:	2b03      	cmp	r3, #3
 80034b8:	d011      	beq.n	80034de <xPortStartScheduler+0x5a>
 80034ba:	f04f 0350 	mov.w	r3, #80	@ 0x50
 80034be:	f383 8811 	msr	BASEPRI, r3
 80034c2:	f3bf 8f6f 	isb	sy
 80034c6:	f3bf 8f4f 	dsb	sy
 80034ca:	e7fe      	b.n	80034ca <xPortStartScheduler+0x46>
 80034cc:	3b01      	subs	r3, #1
 80034ce:	6013      	str	r3, [r2, #0]
 80034d0:	f89d 3003 	ldrb.w	r3, [sp, #3]
 80034d4:	005b      	lsls	r3, r3, #1
 80034d6:	b2db      	uxtb	r3, r3
 80034d8:	f88d 3003 	strb.w	r3, [sp, #3]
 80034dc:	e7e6      	b.n	80034ac <xPortStartScheduler+0x28>
 80034de:	f44f 7340 	mov.w	r3, #768	@ 0x300
 80034e2:	6013      	str	r3, [r2, #0]
 80034e4:	9b01      	ldr	r3, [sp, #4]
 80034e6:	4a0f      	ldr	r2, [pc, #60]	@ (8003524 <xPortStartScheduler+0xa0>)
 80034e8:	b2db      	uxtb	r3, r3
 80034ea:	7013      	strb	r3, [r2, #0]
 80034ec:	f04f 23e0 	mov.w	r3, #3758153728	@ 0xe000e000
 80034f0:	2400      	movs	r4, #0
 80034f2:	f8d3 2d20 	ldr.w	r2, [r3, #3360]	@ 0xd20
 80034f6:	f442 0270 	orr.w	r2, r2, #15728640	@ 0xf00000
 80034fa:	f8c3 2d20 	str.w	r2, [r3, #3360]	@ 0xd20
 80034fe:	f8d3 2d20 	ldr.w	r2, [r3, #3360]	@ 0xd20
 8003502:	f042 4270 	orr.w	r2, r2, #4026531840	@ 0xf0000000
 8003506:	f8c3 2d20 	str.w	r2, [r3, #3360]	@ 0xd20
 800350a:	f7ff ffa9 	bl	8003460 <vPortSetupTimerInterrupt>
 800350e:	4b08      	ldr	r3, [pc, #32]	@ (8003530 <xPortStartScheduler+0xac>)
 8003510:	601c      	str	r4, [r3, #0]
 8003512:	f7ff fee1 	bl	80032d8 <prvPortStartFirstTask>
 8003516:	f7ff fe8d 	bl	8003234 <vTaskSwitchContext>
 800351a:	4620      	mov	r0, r4
 800351c:	f7ff feec 	bl	80032f8 <prvTaskExitError>
 8003520:	b002      	add	sp, #8
 8003522:	bd10      	pop	{r4, pc}
 8003524:	e000e400 	.word	0xe000e400
 8003528:	200005e8 	.word	0x200005e8
 800352c:	200005e4 	.word	0x200005e4
 8003530:	2000000c 	.word	0x2000000c

08003534 <prvInsertBlockIntoFreeList>:
 8003534:	b510      	push	{r4, lr}
 8003536:	4b10      	ldr	r3, [pc, #64]	@ (8003578 <prvInsertBlockIntoFreeList+0x44>)
 8003538:	461a      	mov	r2, r3
 800353a:	681b      	ldr	r3, [r3, #0]
 800353c:	4283      	cmp	r3, r0
 800353e:	d3fb      	bcc.n	8003538 <prvInsertBlockIntoFreeList+0x4>
 8003540:	6854      	ldr	r4, [r2, #4]
 8003542:	1911      	adds	r1, r2, r4
 8003544:	4288      	cmp	r0, r1
 8003546:	bf01      	itttt	eq
 8003548:	6841      	ldreq	r1, [r0, #4]
 800354a:	4610      	moveq	r0, r2
 800354c:	1909      	addeq	r1, r1, r4
 800354e:	6051      	streq	r1, [r2, #4]
 8003550:	6844      	ldr	r4, [r0, #4]
 8003552:	1901      	adds	r1, r0, r4
 8003554:	428b      	cmp	r3, r1
 8003556:	d10c      	bne.n	8003572 <prvInsertBlockIntoFreeList+0x3e>
 8003558:	4908      	ldr	r1, [pc, #32]	@ (800357c <prvInsertBlockIntoFreeList+0x48>)
 800355a:	6809      	ldr	r1, [r1, #0]
 800355c:	428b      	cmp	r3, r1
 800355e:	d003      	beq.n	8003568 <prvInsertBlockIntoFreeList+0x34>
 8003560:	6859      	ldr	r1, [r3, #4]
 8003562:	4421      	add	r1, r4
 8003564:	6041      	str	r1, [r0, #4]
 8003566:	6819      	ldr	r1, [r3, #0]
 8003568:	4290      	cmp	r0, r2
 800356a:	6001      	str	r1, [r0, #0]
 800356c:	bf18      	it	ne
 800356e:	6010      	strne	r0, [r2, #0]
 8003570:	bd10      	pop	{r4, pc}
 8003572:	4619      	mov	r1, r3
 8003574:	e7f8      	b.n	8003568 <prvInsertBlockIntoFreeList+0x34>
 8003576:	bf00      	nop
 8003578:	20000604 	.word	0x20000604
 800357c:	20000600 	.word	0x20000600

08003580 <pvPortMalloc>:
 8003580:	e92d 41f0 	stmdb	sp!, {r4, r5, r6, r7, r8, lr}
 8003584:	4604      	mov	r4, r0
 8003586:	f7ff fced 	bl	8002f64 <vTaskSuspendAll>
 800358a:	4942      	ldr	r1, [pc, #264]	@ (8003694 <pvPortMalloc+0x114>)
 800358c:	4d42      	ldr	r5, [pc, #264]	@ (8003698 <pvPortMalloc+0x118>)
 800358e:	680b      	ldr	r3, [r1, #0]
 8003590:	bb0b      	cbnz	r3, 80035d6 <pvPortMalloc+0x56>
 8003592:	4a42      	ldr	r2, [pc, #264]	@ (800369c <pvPortMalloc+0x11c>)
 8003594:	0756      	lsls	r6, r2, #29
 8003596:	bf1f      	itttt	ne
 8003598:	1dd0      	addne	r0, r2, #7
 800359a:	f020 0007 	bicne.w	r0, r0, #7
 800359e:	f502 6240 	addne.w	r2, r2, #3072	@ 0xc00
 80035a2:	1a13      	subne	r3, r2, r0
 80035a4:	bf0c      	ite	eq
 80035a6:	f44f 6340 	moveq.w	r3, #3072	@ 0xc00
 80035aa:	4602      	movne	r2, r0
 80035ac:	2000      	movs	r0, #0
 80035ae:	4413      	add	r3, r2
 80035b0:	4e3b      	ldr	r6, [pc, #236]	@ (80036a0 <pvPortMalloc+0x120>)
 80035b2:	3b08      	subs	r3, #8
 80035b4:	f023 0307 	bic.w	r3, r3, #7
 80035b8:	6070      	str	r0, [r6, #4]
 80035ba:	6032      	str	r2, [r6, #0]
 80035bc:	e9c3 0000 	strd	r0, r0, [r3]
 80035c0:	1a98      	subs	r0, r3, r2
 80035c2:	e9c2 3000 	strd	r3, r0, [r2]
 80035c6:	600b      	str	r3, [r1, #0]
 80035c8:	4b36      	ldr	r3, [pc, #216]	@ (80036a4 <pvPortMalloc+0x124>)
 80035ca:	6018      	str	r0, [r3, #0]
 80035cc:	4b36      	ldr	r3, [pc, #216]	@ (80036a8 <pvPortMalloc+0x128>)
 80035ce:	6018      	str	r0, [r3, #0]
 80035d0:	f04f 4300 	mov.w	r3, #2147483648	@ 0x80000000
 80035d4:	602b      	str	r3, [r5, #0]
 80035d6:	682e      	ldr	r6, [r5, #0]
 80035d8:	4226      	tst	r6, r4
 80035da:	d155      	bne.n	8003688 <pvPortMalloc+0x108>
 80035dc:	2c00      	cmp	r4, #0
 80035de:	d046      	beq.n	800366e <pvPortMalloc+0xee>
 80035e0:	f104 0308 	add.w	r3, r4, #8
 80035e4:	0760      	lsls	r0, r4, #29
 80035e6:	bf1c      	itt	ne
 80035e8:	f023 0307 	bicne.w	r3, r3, #7
 80035ec:	3308      	addne	r3, #8
 80035ee:	2b00      	cmp	r3, #0
 80035f0:	d04a      	beq.n	8003688 <pvPortMalloc+0x108>
 80035f2:	4f2d      	ldr	r7, [pc, #180]	@ (80036a8 <pvPortMalloc+0x128>)
 80035f4:	683c      	ldr	r4, [r7, #0]
 80035f6:	429c      	cmp	r4, r3
 80035f8:	d346      	bcc.n	8003688 <pvPortMalloc+0x108>
 80035fa:	4a29      	ldr	r2, [pc, #164]	@ (80036a0 <pvPortMalloc+0x120>)
 80035fc:	6815      	ldr	r5, [r2, #0]
 80035fe:	6868      	ldr	r0, [r5, #4]
 8003600:	4298      	cmp	r0, r3
 8003602:	d204      	bcs.n	800360e <pvPortMalloc+0x8e>
 8003604:	f8d5 c000 	ldr.w	ip, [r5]
 8003608:	f1bc 0f00 	cmp.w	ip, #0
 800360c:	d115      	bne.n	800363a <pvPortMalloc+0xba>
 800360e:	6809      	ldr	r1, [r1, #0]
 8003610:	42a9      	cmp	r1, r5
 8003612:	d039      	beq.n	8003688 <pvPortMalloc+0x108>
 8003614:	6829      	ldr	r1, [r5, #0]
 8003616:	f8d2 8000 	ldr.w	r8, [r2]
 800361a:	6011      	str	r1, [r2, #0]
 800361c:	1ac2      	subs	r2, r0, r3
 800361e:	2a10      	cmp	r2, #16
 8003620:	d912      	bls.n	8003648 <pvPortMalloc+0xc8>
 8003622:	18e8      	adds	r0, r5, r3
 8003624:	0741      	lsls	r1, r0, #29
 8003626:	d00b      	beq.n	8003640 <pvPortMalloc+0xc0>
 8003628:	f04f 0350 	mov.w	r3, #80	@ 0x50
 800362c:	f383 8811 	msr	BASEPRI, r3
 8003630:	f3bf 8f6f 	isb	sy
 8003634:	f3bf 8f4f 	dsb	sy
 8003638:	e7fe      	b.n	8003638 <pvPortMalloc+0xb8>
 800363a:	462a      	mov	r2, r5
 800363c:	4665      	mov	r5, ip
 800363e:	e7de      	b.n	80035fe <pvPortMalloc+0x7e>
 8003640:	6042      	str	r2, [r0, #4]
 8003642:	606b      	str	r3, [r5, #4]
 8003644:	f7ff ff76 	bl	8003534 <prvInsertBlockIntoFreeList>
 8003648:	2300      	movs	r3, #0
 800364a:	686a      	ldr	r2, [r5, #4]
 800364c:	4915      	ldr	r1, [pc, #84]	@ (80036a4 <pvPortMalloc+0x124>)
 800364e:	1aa4      	subs	r4, r4, r2
 8003650:	4316      	orrs	r6, r2
 8003652:	4a16      	ldr	r2, [pc, #88]	@ (80036ac <pvPortMalloc+0x12c>)
 8003654:	6808      	ldr	r0, [r1, #0]
 8003656:	602b      	str	r3, [r5, #0]
 8003658:	6813      	ldr	r3, [r2, #0]
 800365a:	4284      	cmp	r4, r0
 800365c:	f103 0301 	add.w	r3, r3, #1
 8003660:	603c      	str	r4, [r7, #0]
 8003662:	bf38      	it	cc
 8003664:	600c      	strcc	r4, [r1, #0]
 8003666:	606e      	str	r6, [r5, #4]
 8003668:	f108 0408 	add.w	r4, r8, #8
 800366c:	6013      	str	r3, [r2, #0]
 800366e:	f7ff fd21 	bl	80030b4 <xTaskResumeAll>
 8003672:	0763      	lsls	r3, r4, #29
 8003674:	d00a      	beq.n	800368c <pvPortMalloc+0x10c>
 8003676:	f04f 0350 	mov.w	r3, #80	@ 0x50
 800367a:	f383 8811 	msr	BASEPRI, r3
 800367e:	f3bf 8f6f 	isb	sy
 8003682:	f3bf 8f4f 	dsb	sy
 8003686:	e7fe      	b.n	8003686 <pvPortMalloc+0x106>
 8003688:	2400      	movs	r4, #0
 800368a:	e7f0      	b.n	800366e <pvPortMalloc+0xee>
 800368c:	4620      	mov	r0, r4
 800368e:	e8bd 81f0 	ldmia.w	sp!, {r4, r5, r6, r7, r8, pc}
 8003692:	bf00      	nop
 8003694:	20000600 	.word	0x20000600
 8003698:	200005ec 	.word	0x200005ec
 800369c:	2000060c 	.word	0x2000060c
 80036a0:	20000604 	.word	0x20000604
 80036a4:	200005f8 	.word	0x200005f8
 80036a8:	200005fc 	.word	0x200005fc
 80036ac:	200005f4 	.word	0x200005f4

080036b0 <vPortFree>:
 80036b0:	b510      	push	{r4, lr}
 80036b2:	4604      	mov	r4, r0
 80036b4:	b390      	cbz	r0, 800371c <vPortFree+0x6c>
 80036b6:	4a1a      	ldr	r2, [pc, #104]	@ (8003720 <vPortFree+0x70>)
 80036b8:	f850 3c04 	ldr.w	r3, [r0, #-4]
 80036bc:	6812      	ldr	r2, [r2, #0]
 80036be:	4213      	tst	r3, r2
 80036c0:	d108      	bne.n	80036d4 <vPortFree+0x24>
 80036c2:	f04f 0350 	mov.w	r3, #80	@ 0x50
 80036c6:	f383 8811 	msr	BASEPRI, r3
 80036ca:	f3bf 8f6f 	isb	sy
 80036ce:	f3bf 8f4f 	dsb	sy
 80036d2:	e7fe      	b.n	80036d2 <vPortFree+0x22>
 80036d4:	f850 1c08 	ldr.w	r1, [r0, #-8]
 80036d8:	b141      	cbz	r1, 80036ec <vPortFree+0x3c>
 80036da:	f04f 0350 	mov.w	r3, #80	@ 0x50
 80036de:	f383 8811 	msr	BASEPRI, r3
 80036e2:	f3bf 8f6f 	isb	sy
 80036e6:	f3bf 8f4f 	dsb	sy
 80036ea:	e7fe      	b.n	80036ea <vPortFree+0x3a>
 80036ec:	ea23 0302 	bic.w	r3, r3, r2
 80036f0:	f840 3c04 	str.w	r3, [r0, #-4]
 80036f4:	f7ff fc36 	bl	8002f64 <vTaskSuspendAll>
 80036f8:	4a0a      	ldr	r2, [pc, #40]	@ (8003724 <vPortFree+0x74>)
 80036fa:	f854 3c04 	ldr.w	r3, [r4, #-4]
 80036fe:	6811      	ldr	r1, [r2, #0]
 8003700:	f1a4 0008 	sub.w	r0, r4, #8
 8003704:	440b      	add	r3, r1
 8003706:	6013      	str	r3, [r2, #0]
 8003708:	f7ff ff14 	bl	8003534 <prvInsertBlockIntoFreeList>
 800370c:	e8bd 4010 	ldmia.w	sp!, {r4, lr}
 8003710:	4a05      	ldr	r2, [pc, #20]	@ (8003728 <vPortFree+0x78>)
 8003712:	6813      	ldr	r3, [r2, #0]
 8003714:	3301      	adds	r3, #1
 8003716:	6013      	str	r3, [r2, #0]
 8003718:	f7ff bccc 	b.w	80030b4 <xTaskResumeAll>
 800371c:	bd10      	pop	{r4, pc}
 800371e:	bf00      	nop
 8003720:	200005ec 	.word	0x200005ec
 8003724:	200005fc 	.word	0x200005fc
 8003728:	200005f0 	.word	0x200005f0

0800372c <std>:
 800372c:	2300      	movs	r3, #0
 800372e:	b510      	push	{r4, lr}
 8003730:	4604      	mov	r4, r0
 8003732:	e9c0 3300 	strd	r3, r3, [r0]
 8003736:	e9c0 3304 	strd	r3, r3, [r0, #16]
 800373a:	6083      	str	r3, [r0, #8]
 800373c:	8181      	strh	r1, [r0, #12]
 800373e:	6643      	str	r3, [r0, #100]	@ 0x64
 8003740:	81c2      	strh	r2, [r0, #14]
 8003742:	6183      	str	r3, [r0, #24]
 8003744:	4619      	mov	r1, r3
 8003746:	2208      	movs	r2, #8
 8003748:	305c      	adds	r0, #92	@ 0x5c
 800374a:	f000 fa01 	bl	8003b50 <memset>
 800374e:	4b0d      	ldr	r3, [pc, #52]	@ (8003784 <std+0x58>)
 8003750:	6224      	str	r4, [r4, #32]
 8003752:	6263      	str	r3, [r4, #36]	@ 0x24
 8003754:	4b0c      	ldr	r3, [pc, #48]	@ (8003788 <std+0x5c>)
 8003756:	62a3      	str	r3, [r4, #40]	@ 0x28
 8003758:	4b0c      	ldr	r3, [pc, #48]	@ (800378c <std+0x60>)
 800375a:	62e3      	str	r3, [r4, #44]	@ 0x2c
 800375c:	4b0c      	ldr	r3, [pc, #48]	@ (8003790 <std+0x64>)
 800375e:	6323      	str	r3, [r4, #48]	@ 0x30
 8003760:	4b0c      	ldr	r3, [pc, #48]	@ (8003794 <std+0x68>)
 8003762:	429c      	cmp	r4, r3
 8003764:	d006      	beq.n	8003774 <std+0x48>
 8003766:	f103 0268 	add.w	r2, r3, #104	@ 0x68
 800376a:	4294      	cmp	r4, r2
 800376c:	d002      	beq.n	8003774 <std+0x48>
 800376e:	33d0      	adds	r3, #208	@ 0xd0
 8003770:	429c      	cmp	r4, r3
 8003772:	d105      	bne.n	8003780 <std+0x54>
 8003774:	f104 0058 	add.w	r0, r4, #88	@ 0x58
 8003778:	e8bd 4010 	ldmia.w	sp!, {r4, lr}
 800377c:	f000 babe 	b.w	8003cfc <__retarget_lock_init_recursive>
 8003780:	bd10      	pop	{r4, pc}
 8003782:	bf00      	nop
 8003784:	080039a1 	.word	0x080039a1
 8003788:	080039c3 	.word	0x080039c3
 800378c:	080039fb 	.word	0x080039fb
 8003790:	08003a1f 	.word	0x08003a1f
 8003794:	2000120c 	.word	0x2000120c

08003798 <stdio_exit_handler>:
 8003798:	4a02      	ldr	r2, [pc, #8]	@ (80037a4 <stdio_exit_handler+0xc>)
 800379a:	4903      	ldr	r1, [pc, #12]	@ (80037a8 <stdio_exit_handler+0x10>)
 800379c:	4803      	ldr	r0, [pc, #12]	@ (80037ac <stdio_exit_handler+0x14>)
 800379e:	f000 b869 	b.w	8003874 <_fwalk_sglue>
 80037a2:	bf00      	nop
 80037a4:	20000010 	.word	0x20000010
 80037a8:	08004591 	.word	0x08004591
 80037ac:	20000020 	.word	0x20000020

080037b0 <cleanup_stdio>:
 80037b0:	6841      	ldr	r1, [r0, #4]
 80037b2:	4b0c      	ldr	r3, [pc, #48]	@ (80037e4 <cleanup_stdio+0x34>)
 80037b4:	b510      	push	{r4, lr}
 80037b6:	4299      	cmp	r1, r3
 80037b8:	4604      	mov	r4, r0
 80037ba:	d001      	beq.n	80037c0 <cleanup_stdio+0x10>
 80037bc:	f000 fee8 	bl	8004590 <_fflush_r>
 80037c0:	68a1      	ldr	r1, [r4, #8]
 80037c2:	4b09      	ldr	r3, [pc, #36]	@ (80037e8 <cleanup_stdio+0x38>)
 80037c4:	4299      	cmp	r1, r3
 80037c6:	d002      	beq.n	80037ce <cleanup_stdio+0x1e>
 80037c8:	4620      	mov	r0, r4
 80037ca:	f000 fee1 	bl	8004590 <_fflush_r>
 80037ce:	68e1      	ldr	r1, [r4, #12]
 80037d0:	4b06      	ldr	r3, [pc, #24]	@ (80037ec <cleanup_stdio+0x3c>)
 80037d2:	4299      	cmp	r1, r3
 80037d4:	d004      	beq.n	80037e0 <cleanup_stdio+0x30>
 80037d6:	4620      	mov	r0, r4
 80037d8:	e8bd 4010 	ldmia.w	sp!, {r4, lr}
 80037dc:	f000 bed8 	b.w	8004590 <_fflush_r>
 80037e0:	bd10      	pop	{r4, pc}
 80037e2:	bf00      	nop
 80037e4:	2000120c 	.word	0x2000120c
 80037e8:	20001274 	.word	0x20001274
 80037ec:	200012dc 	.word	0x200012dc

080037f0 <global_stdio_init.part.0>:
 80037f0:	b510      	push	{r4, lr}
 80037f2:	4b0b      	ldr	r3, [pc, #44]	@ (8003820 <global_stdio_init.part.0+0x30>)
 80037f4:	4c0b      	ldr	r4, [pc, #44]	@ (8003824 <global_stdio_init.part.0+0x34>)
 80037f6:	4a0c      	ldr	r2, [pc, #48]	@ (8003828 <global_stdio_init.part.0+0x38>)
 80037f8:	4620      	mov	r0, r4
 80037fa:	601a      	str	r2, [r3, #0]
 80037fc:	2104      	movs	r1, #4
 80037fe:	2200      	movs	r2, #0
 8003800:	f7ff ff94 	bl	800372c <std>
 8003804:	f104 0068 	add.w	r0, r4, #104	@ 0x68
 8003808:	2201      	movs	r2, #1
 800380a:	2109      	movs	r1, #9
 800380c:	f7ff ff8e 	bl	800372c <std>
 8003810:	f104 00d0 	add.w	r0, r4, #208	@ 0xd0
 8003814:	2202      	movs	r2, #2
 8003816:	e8bd 4010 	ldmia.w	sp!, {r4, lr}
 800381a:	2112      	movs	r1, #18
 800381c:	f7ff bf86 	b.w	800372c <std>
 8003820:	20001344 	.word	0x20001344
 8003824:	2000120c 	.word	0x2000120c
 8003828:	08003799 	.word	0x08003799

0800382c <__sfp_lock_acquire>:
 800382c:	4801      	ldr	r0, [pc, #4]	@ (8003834 <__sfp_lock_acquire+0x8>)
 800382e:	f000 ba66 	b.w	8003cfe <__retarget_lock_acquire_recursive>
 8003832:	bf00      	nop
 8003834:	2000134d 	.word	0x2000134d

08003838 <__sfp_lock_release>:
 8003838:	4801      	ldr	r0, [pc, #4]	@ (8003840 <__sfp_lock_release+0x8>)
 800383a:	f000 ba61 	b.w	8003d00 <__retarget_lock_release_recursive>
 800383e:	bf00      	nop
 8003840:	2000134d 	.word	0x2000134d

08003844 <__sinit>:
 8003844:	b510      	push	{r4, lr}
 8003846:	4604      	mov	r4, r0
 8003848:	f7ff fff0 	bl	800382c <__sfp_lock_acquire>
 800384c:	6a23      	ldr	r3, [r4, #32]
 800384e:	b11b      	cbz	r3, 8003858 <__sinit+0x14>
 8003850:	e8bd 4010 	ldmia.w	sp!, {r4, lr}
 8003854:	f7ff bff0 	b.w	8003838 <__sfp_lock_release>
 8003858:	4b04      	ldr	r3, [pc, #16]	@ (800386c <__sinit+0x28>)
 800385a:	6223      	str	r3, [r4, #32]
 800385c:	4b04      	ldr	r3, [pc, #16]	@ (8003870 <__sinit+0x2c>)
 800385e:	681b      	ldr	r3, [r3, #0]
 8003860:	2b00      	cmp	r3, #0
 8003862:	d1f5      	bne.n	8003850 <__sinit+0xc>
 8003864:	f7ff ffc4 	bl	80037f0 <global_stdio_init.part.0>
 8003868:	e7f2      	b.n	8003850 <__sinit+0xc>
 800386a:	bf00      	nop
 800386c:	080037b1 	.word	0x080037b1
 8003870:	20001344 	.word	0x20001344

08003874 <_fwalk_sglue>:
 8003874:	e92d 43f8 	stmdb	sp!, {r3, r4, r5, r6, r7, r8, r9, lr}
 8003878:	4607      	mov	r7, r0
 800387a:	4688      	mov	r8, r1
 800387c:	4614      	mov	r4, r2
 800387e:	2600      	movs	r6, #0
 8003880:	e9d4 9501 	ldrd	r9, r5, [r4, #4]
 8003884:	f1b9 0901 	subs.w	r9, r9, #1
 8003888:	d505      	bpl.n	8003896 <_fwalk_sglue+0x22>
 800388a:	6824      	ldr	r4, [r4, #0]
 800388c:	2c00      	cmp	r4, #0
 800388e:	d1f7      	bne.n	8003880 <_fwalk_sglue+0xc>
 8003890:	4630      	mov	r0, r6
 8003892:	e8bd 83f8 	ldmia.w	sp!, {r3, r4, r5, r6, r7, r8, r9, pc}
 8003896:	89ab      	ldrh	r3, [r5, #12]
 8003898:	2b01      	cmp	r3, #1
 800389a:	d907      	bls.n	80038ac <_fwalk_sglue+0x38>
 800389c:	f9b5 300e 	ldrsh.w	r3, [r5, #14]
 80038a0:	3301      	adds	r3, #1
 80038a2:	d003      	beq.n	80038ac <_fwalk_sglue+0x38>
 80038a4:	4629      	mov	r1, r5
 80038a6:	4638      	mov	r0, r7
 80038a8:	47c0      	blx	r8
 80038aa:	4306      	orrs	r6, r0
 80038ac:	3568      	adds	r5, #104	@ 0x68
 80038ae:	e7e9      	b.n	8003884 <_fwalk_sglue+0x10>

080038b0 <iprintf>:
 80038b0:	b40f      	push	{r0, r1, r2, r3}
 80038b2:	b507      	push	{r0, r1, r2, lr}
 80038b4:	4906      	ldr	r1, [pc, #24]	@ (80038d0 <iprintf+0x20>)
 80038b6:	ab04      	add	r3, sp, #16
 80038b8:	6808      	ldr	r0, [r1, #0]
 80038ba:	f853 2b04 	ldr.w	r2, [r3], #4
 80038be:	6881      	ldr	r1, [r0, #8]
 80038c0:	9301      	str	r3, [sp, #4]
 80038c2:	f000 fb3d 	bl	8003f40 <_vfiprintf_r>
 80038c6:	b003      	add	sp, #12
 80038c8:	f85d eb04 	ldr.w	lr, [sp], #4
 80038cc:	b004      	add	sp, #16
 80038ce:	4770      	bx	lr
 80038d0:	2000001c 	.word	0x2000001c

080038d4 <putchar>:
 80038d4:	4b02      	ldr	r3, [pc, #8]	@ (80038e0 <putchar+0xc>)
 80038d6:	4601      	mov	r1, r0
 80038d8:	6818      	ldr	r0, [r3, #0]
 80038da:	6882      	ldr	r2, [r0, #8]
 80038dc:	f000 bee1 	b.w	80046a2 <_putc_r>
 80038e0:	2000001c 	.word	0x2000001c

080038e4 <_puts_r>:
 80038e4:	6a03      	ldr	r3, [r0, #32]
 80038e6:	b570      	push	{r4, r5, r6, lr}
 80038e8:	4605      	mov	r5, r0
 80038ea:	460e      	mov	r6, r1
 80038ec:	6884      	ldr	r4, [r0, #8]
 80038ee:	b90b      	cbnz	r3, 80038f4 <_puts_r+0x10>
 80038f0:	f7ff ffa8 	bl	8003844 <__sinit>
 80038f4:	6e63      	ldr	r3, [r4, #100]	@ 0x64
 80038f6:	07db      	lsls	r3, r3, #31
 80038f8:	d405      	bmi.n	8003906 <_puts_r+0x22>
 80038fa:	89a3      	ldrh	r3, [r4, #12]
 80038fc:	0598      	lsls	r0, r3, #22
 80038fe:	d402      	bmi.n	8003906 <_puts_r+0x22>
 8003900:	6da0      	ldr	r0, [r4, #88]	@ 0x58
 8003902:	f000 f9fc 	bl	8003cfe <__retarget_lock_acquire_recursive>
 8003906:	89a3      	ldrh	r3, [r4, #12]
 8003908:	0719      	lsls	r1, r3, #28
 800390a:	d502      	bpl.n	8003912 <_puts_r+0x2e>
 800390c:	6923      	ldr	r3, [r4, #16]
 800390e:	2b00      	cmp	r3, #0
 8003910:	d135      	bne.n	800397e <_puts_r+0x9a>
 8003912:	4621      	mov	r1, r4
 8003914:	4628      	mov	r0, r5
 8003916:	f000 f8c5 	bl	8003aa4 <__swsetup_r>
 800391a:	b380      	cbz	r0, 800397e <_puts_r+0x9a>
 800391c:	f04f 35ff 	mov.w	r5, #4294967295
 8003920:	6e63      	ldr	r3, [r4, #100]	@ 0x64
 8003922:	07da      	lsls	r2, r3, #31
 8003924:	d405      	bmi.n	8003932 <_puts_r+0x4e>
 8003926:	89a3      	ldrh	r3, [r4, #12]
 8003928:	059b      	lsls	r3, r3, #22
 800392a:	d402      	bmi.n	8003932 <_puts_r+0x4e>
 800392c:	6da0      	ldr	r0, [r4, #88]	@ 0x58
 800392e:	f000 f9e7 	bl	8003d00 <__retarget_lock_release_recursive>
 8003932:	4628      	mov	r0, r5
 8003934:	bd70      	pop	{r4, r5, r6, pc}
 8003936:	2b00      	cmp	r3, #0
 8003938:	da04      	bge.n	8003944 <_puts_r+0x60>
 800393a:	69a2      	ldr	r2, [r4, #24]
 800393c:	429a      	cmp	r2, r3
 800393e:	dc17      	bgt.n	8003970 <_puts_r+0x8c>
 8003940:	290a      	cmp	r1, #10
 8003942:	d015      	beq.n	8003970 <_puts_r+0x8c>
 8003944:	6823      	ldr	r3, [r4, #0]
 8003946:	1c5a      	adds	r2, r3, #1
 8003948:	6022      	str	r2, [r4, #0]
 800394a:	7019      	strb	r1, [r3, #0]
 800394c:	68a3      	ldr	r3, [r4, #8]
 800394e:	f816 1f01 	ldrb.w	r1, [r6, #1]!
 8003952:	3b01      	subs	r3, #1
 8003954:	60a3      	str	r3, [r4, #8]
 8003956:	2900      	cmp	r1, #0
 8003958:	d1ed      	bne.n	8003936 <_puts_r+0x52>
 800395a:	2b00      	cmp	r3, #0
 800395c:	da11      	bge.n	8003982 <_puts_r+0x9e>
 800395e:	4622      	mov	r2, r4
 8003960:	210a      	movs	r1, #10
 8003962:	4628      	mov	r0, r5
 8003964:	f000 f85f 	bl	8003a26 <__swbuf_r>
 8003968:	3001      	adds	r0, #1
 800396a:	d0d7      	beq.n	800391c <_puts_r+0x38>
 800396c:	250a      	movs	r5, #10
 800396e:	e7d7      	b.n	8003920 <_puts_r+0x3c>
 8003970:	4622      	mov	r2, r4
 8003972:	4628      	mov	r0, r5
 8003974:	f000 f857 	bl	8003a26 <__swbuf_r>
 8003978:	3001      	adds	r0, #1
 800397a:	d1e7      	bne.n	800394c <_puts_r+0x68>
 800397c:	e7ce      	b.n	800391c <_puts_r+0x38>
 800397e:	3e01      	subs	r6, #1
 8003980:	e7e4      	b.n	800394c <_puts_r+0x68>
 8003982:	6823      	ldr	r3, [r4, #0]
 8003984:	1c5a      	adds	r2, r3, #1
 8003986:	6022      	str	r2, [r4, #0]
 8003988:	220a      	movs	r2, #10
 800398a:	701a      	strb	r2, [r3, #0]
 800398c:	e7ee      	b.n	800396c <_puts_r+0x88>
	...

08003990 <puts>:
 8003990:	4b02      	ldr	r3, [pc, #8]	@ (800399c <puts+0xc>)
 8003992:	4601      	mov	r1, r0
 8003994:	6818      	ldr	r0, [r3, #0]
 8003996:	f7ff bfa5 	b.w	80038e4 <_puts_r>
 800399a:	bf00      	nop
 800399c:	2000001c 	.word	0x2000001c

080039a0 <__sread>:
 80039a0:	b510      	push	{r4, lr}
 80039a2:	460c      	mov	r4, r1
 80039a4:	f9b1 100e 	ldrsh.w	r1, [r1, #14]
 80039a8:	f000 f95a 	bl	8003c60 <_read_r>
 80039ac:	2800      	cmp	r0, #0
 80039ae:	bfab      	itete	ge
 80039b0:	6d63      	ldrge	r3, [r4, #84]	@ 0x54
 80039b2:	89a3      	ldrhlt	r3, [r4, #12]
 80039b4:	181b      	addge	r3, r3, r0
 80039b6:	f423 5380 	biclt.w	r3, r3, #4096	@ 0x1000
 80039ba:	bfac      	ite	ge
 80039bc:	6563      	strge	r3, [r4, #84]	@ 0x54
 80039be:	81a3      	strhlt	r3, [r4, #12]
 80039c0:	bd10      	pop	{r4, pc}

080039c2 <__swrite>:
 80039c2:	e92d 41f0 	stmdb	sp!, {r4, r5, r6, r7, r8, lr}
 80039c6:	461f      	mov	r7, r3
 80039c8:	898b      	ldrh	r3, [r1, #12]
 80039ca:	4605      	mov	r5, r0
 80039cc:	05db      	lsls	r3, r3, #23
 80039ce:	460c      	mov	r4, r1
 80039d0:	4616      	mov	r6, r2
 80039d2:	d505      	bpl.n	80039e0 <__swrite+0x1e>
 80039d4:	2302      	movs	r3, #2
 80039d6:	2200      	movs	r2, #0
 80039d8:	f9b1 100e 	ldrsh.w	r1, [r1, #14]
 80039dc:	f000 f92e 	bl	8003c3c <_lseek_r>
 80039e0:	89a3      	ldrh	r3, [r4, #12]
 80039e2:	4632      	mov	r2, r6
 80039e4:	f423 5380 	bic.w	r3, r3, #4096	@ 0x1000
 80039e8:	81a3      	strh	r3, [r4, #12]
 80039ea:	4628      	mov	r0, r5
 80039ec:	463b      	mov	r3, r7
 80039ee:	f9b4 100e 	ldrsh.w	r1, [r4, #14]
 80039f2:	e8bd 41f0 	ldmia.w	sp!, {r4, r5, r6, r7, r8, lr}
 80039f6:	f000 b945 	b.w	8003c84 <_write_r>

080039fa <__sseek>:
 80039fa:	b510      	push	{r4, lr}
 80039fc:	460c      	mov	r4, r1
 80039fe:	f9b1 100e 	ldrsh.w	r1, [r1, #14]
 8003a02:	f000 f91b 	bl	8003c3c <_lseek_r>
 8003a06:	1c43      	adds	r3, r0, #1
 8003a08:	89a3      	ldrh	r3, [r4, #12]
 8003a0a:	bf15      	itete	ne
 8003a0c:	6560      	strne	r0, [r4, #84]	@ 0x54
 8003a0e:	f423 5380 	biceq.w	r3, r3, #4096	@ 0x1000
 8003a12:	f443 5380 	orrne.w	r3, r3, #4096	@ 0x1000
 8003a16:	81a3      	strheq	r3, [r4, #12]
 8003a18:	bf18      	it	ne
 8003a1a:	81a3      	strhne	r3, [r4, #12]
 8003a1c:	bd10      	pop	{r4, pc}

08003a1e <__sclose>:
 8003a1e:	f9b1 100e 	ldrsh.w	r1, [r1, #14]
 8003a22:	f000 b89d 	b.w	8003b60 <_close_r>

08003a26 <__swbuf_r>:
 8003a26:	b5f8      	push	{r3, r4, r5, r6, r7, lr}
 8003a28:	460e      	mov	r6, r1
 8003a2a:	4614      	mov	r4, r2
 8003a2c:	4605      	mov	r5, r0
 8003a2e:	b118      	cbz	r0, 8003a38 <__swbuf_r+0x12>
 8003a30:	6a03      	ldr	r3, [r0, #32]
 8003a32:	b90b      	cbnz	r3, 8003a38 <__swbuf_r+0x12>
 8003a34:	f7ff ff06 	bl	8003844 <__sinit>
 8003a38:	69a3      	ldr	r3, [r4, #24]
 8003a3a:	60a3      	str	r3, [r4, #8]
 8003a3c:	89a3      	ldrh	r3, [r4, #12]
 8003a3e:	071a      	lsls	r2, r3, #28
 8003a40:	d501      	bpl.n	8003a46 <__swbuf_r+0x20>
 8003a42:	6923      	ldr	r3, [r4, #16]
 8003a44:	b943      	cbnz	r3, 8003a58 <__swbuf_r+0x32>
 8003a46:	4621      	mov	r1, r4
 8003a48:	4628      	mov	r0, r5
 8003a4a:	f000 f82b 	bl	8003aa4 <__swsetup_r>
 8003a4e:	b118      	cbz	r0, 8003a58 <__swbuf_r+0x32>
 8003a50:	f04f 37ff 	mov.w	r7, #4294967295
 8003a54:	4638      	mov	r0, r7
 8003a56:	bdf8      	pop	{r3, r4, r5, r6, r7, pc}
 8003a58:	6823      	ldr	r3, [r4, #0]
 8003a5a:	6922      	ldr	r2, [r4, #16]
 8003a5c:	b2f6      	uxtb	r6, r6
 8003a5e:	1a98      	subs	r0, r3, r2
 8003a60:	6963      	ldr	r3, [r4, #20]
 8003a62:	4637      	mov	r7, r6
 8003a64:	4283      	cmp	r3, r0
 8003a66:	dc05      	bgt.n	8003a74 <__swbuf_r+0x4e>
 8003a68:	4621      	mov	r1, r4
 8003a6a:	4628      	mov	r0, r5
 8003a6c:	f000 fd90 	bl	8004590 <_fflush_r>
 8003a70:	2800      	cmp	r0, #0
 8003a72:	d1ed      	bne.n	8003a50 <__swbuf_r+0x2a>
 8003a74:	68a3      	ldr	r3, [r4, #8]
 8003a76:	3b01      	subs	r3, #1
 8003a78:	60a3      	str	r3, [r4, #8]
 8003a7a:	6823      	ldr	r3, [r4, #0]
 8003a7c:	1c5a      	adds	r2, r3, #1
 8003a7e:	6022      	str	r2, [r4, #0]
 8003a80:	701e      	strb	r6, [r3, #0]
 8003a82:	6962      	ldr	r2, [r4, #20]
 8003a84:	1c43      	adds	r3, r0, #1
 8003a86:	429a      	cmp	r2, r3
 8003a88:	d004      	beq.n	8003a94 <__swbuf_r+0x6e>
 8003a8a:	89a3      	ldrh	r3, [r4, #12]
 8003a8c:	07db      	lsls	r3, r3, #31
 8003a8e:	d5e1      	bpl.n	8003a54 <__swbuf_r+0x2e>
 8003a90:	2e0a      	cmp	r6, #10
 8003a92:	d1df      	bne.n	8003a54 <__swbuf_r+0x2e>
 8003a94:	4621      	mov	r1, r4
 8003a96:	4628      	mov	r0, r5
 8003a98:	f000 fd7a 	bl	8004590 <_fflush_r>
 8003a9c:	2800      	cmp	r0, #0
 8003a9e:	d0d9      	beq.n	8003a54 <__swbuf_r+0x2e>
 8003aa0:	e7d6      	b.n	8003a50 <__swbuf_r+0x2a>
	...

08003aa4 <__swsetup_r>:
 8003aa4:	b538      	push	{r3, r4, r5, lr}
 8003aa6:	4b29      	ldr	r3, [pc, #164]	@ (8003b4c <__swsetup_r+0xa8>)
 8003aa8:	4605      	mov	r5, r0
 8003aaa:	6818      	ldr	r0, [r3, #0]
 8003aac:	460c      	mov	r4, r1
 8003aae:	b118      	cbz	r0, 8003ab8 <__swsetup_r+0x14>
 8003ab0:	6a03      	ldr	r3, [r0, #32]
 8003ab2:	b90b      	cbnz	r3, 8003ab8 <__swsetup_r+0x14>
 8003ab4:	f7ff fec6 	bl	8003844 <__sinit>
 8003ab8:	f9b4 300c 	ldrsh.w	r3, [r4, #12]
 8003abc:	0719      	lsls	r1, r3, #28
 8003abe:	d422      	bmi.n	8003b06 <__swsetup_r+0x62>
 8003ac0:	06da      	lsls	r2, r3, #27
 8003ac2:	d407      	bmi.n	8003ad4 <__swsetup_r+0x30>
 8003ac4:	2209      	movs	r2, #9
 8003ac6:	602a      	str	r2, [r5, #0]
 8003ac8:	f043 0340 	orr.w	r3, r3, #64	@ 0x40
 8003acc:	f04f 30ff 	mov.w	r0, #4294967295
 8003ad0:	81a3      	strh	r3, [r4, #12]
 8003ad2:	e033      	b.n	8003b3c <__swsetup_r+0x98>
 8003ad4:	0758      	lsls	r0, r3, #29
 8003ad6:	d512      	bpl.n	8003afe <__swsetup_r+0x5a>
 8003ad8:	6b61      	ldr	r1, [r4, #52]	@ 0x34
 8003ada:	b141      	cbz	r1, 8003aee <__swsetup_r+0x4a>
 8003adc:	f104 0344 	add.w	r3, r4, #68	@ 0x44
 8003ae0:	4299      	cmp	r1, r3
 8003ae2:	d002      	beq.n	8003aea <__swsetup_r+0x46>
 8003ae4:	4628      	mov	r0, r5
 8003ae6:	f000 f90d 	bl	8003d04 <_free_r>
 8003aea:	2300      	movs	r3, #0
 8003aec:	6363      	str	r3, [r4, #52]	@ 0x34
 8003aee:	89a3      	ldrh	r3, [r4, #12]
 8003af0:	f023 0324 	bic.w	r3, r3, #36	@ 0x24
 8003af4:	81a3      	strh	r3, [r4, #12]
 8003af6:	2300      	movs	r3, #0
 8003af8:	6063      	str	r3, [r4, #4]
 8003afa:	6923      	ldr	r3, [r4, #16]
 8003afc:	6023      	str	r3, [r4, #0]
 8003afe:	89a3      	ldrh	r3, [r4, #12]
 8003b00:	f043 0308 	orr.w	r3, r3, #8
 8003b04:	81a3      	strh	r3, [r4, #12]
 8003b06:	6923      	ldr	r3, [r4, #16]
 8003b08:	b94b      	cbnz	r3, 8003b1e <__swsetup_r+0x7a>
 8003b0a:	89a3      	ldrh	r3, [r4, #12]
 8003b0c:	f403 7320 	and.w	r3, r3, #640	@ 0x280
 8003b10:	f5b3 7f00 	cmp.w	r3, #512	@ 0x200
 8003b14:	d003      	beq.n	8003b1e <__swsetup_r+0x7a>
 8003b16:	4621      	mov	r1, r4
 8003b18:	4628      	mov	r0, r5
 8003b1a:	f000 fd86 	bl	800462a <__smakebuf_r>
 8003b1e:	f9b4 300c 	ldrsh.w	r3, [r4, #12]
 8003b22:	f013 0201 	ands.w	r2, r3, #1
 8003b26:	d00a      	beq.n	8003b3e <__swsetup_r+0x9a>
 8003b28:	2200      	movs	r2, #0
 8003b2a:	60a2      	str	r2, [r4, #8]
 8003b2c:	6962      	ldr	r2, [r4, #20]
 8003b2e:	4252      	negs	r2, r2
 8003b30:	61a2      	str	r2, [r4, #24]
 8003b32:	6922      	ldr	r2, [r4, #16]
 8003b34:	b942      	cbnz	r2, 8003b48 <__swsetup_r+0xa4>
 8003b36:	f013 0080 	ands.w	r0, r3, #128	@ 0x80
 8003b3a:	d1c5      	bne.n	8003ac8 <__swsetup_r+0x24>
 8003b3c:	bd38      	pop	{r3, r4, r5, pc}
 8003b3e:	0799      	lsls	r1, r3, #30
 8003b40:	bf58      	it	pl
 8003b42:	6962      	ldrpl	r2, [r4, #20]
 8003b44:	60a2      	str	r2, [r4, #8]
 8003b46:	e7f4      	b.n	8003b32 <__swsetup_r+0x8e>
 8003b48:	2000      	movs	r0, #0
 8003b4a:	e7f7      	b.n	8003b3c <__swsetup_r+0x98>
 8003b4c:	2000001c 	.word	0x2000001c

08003b50 <memset>:
 8003b50:	4603      	mov	r3, r0
 8003b52:	4402      	add	r2, r0
 8003b54:	4293      	cmp	r3, r2
 8003b56:	d100      	bne.n	8003b5a <memset+0xa>
 8003b58:	4770      	bx	lr
 8003b5a:	f803 1b01 	strb.w	r1, [r3], #1
 8003b5e:	e7f9      	b.n	8003b54 <memset+0x4>

08003b60 <_close_r>:
 8003b60:	b538      	push	{r3, r4, r5, lr}
 8003b62:	2300      	movs	r3, #0
 8003b64:	4d05      	ldr	r5, [pc, #20]	@ (8003b7c <_close_r+0x1c>)
 8003b66:	4604      	mov	r4, r0
 8003b68:	4608      	mov	r0, r1
 8003b6a:	602b      	str	r3, [r5, #0]
 8003b6c:	f7fc fe02 	bl	8000774 <_close>
 8003b70:	1c43      	adds	r3, r0, #1
 8003b72:	d102      	bne.n	8003b7a <_close_r+0x1a>
 8003b74:	682b      	ldr	r3, [r5, #0]
 8003b76:	b103      	cbz	r3, 8003b7a <_close_r+0x1a>
 8003b78:	6023      	str	r3, [r4, #0]
 8003b7a:	bd38      	pop	{r3, r4, r5, pc}
 8003b7c:	20001348 	.word	0x20001348

08003b80 <_reclaim_reent>:
 8003b80:	4b2d      	ldr	r3, [pc, #180]	@ (8003c38 <_reclaim_reent+0xb8>)
 8003b82:	b570      	push	{r4, r5, r6, lr}
 8003b84:	681b      	ldr	r3, [r3, #0]
 8003b86:	4604      	mov	r4, r0
 8003b88:	4283      	cmp	r3, r0
 8003b8a:	d053      	beq.n	8003c34 <_reclaim_reent+0xb4>
 8003b8c:	69c3      	ldr	r3, [r0, #28]
 8003b8e:	b31b      	cbz	r3, 8003bd8 <_reclaim_reent+0x58>
 8003b90:	68db      	ldr	r3, [r3, #12]
 8003b92:	b163      	cbz	r3, 8003bae <_reclaim_reent+0x2e>
 8003b94:	2500      	movs	r5, #0
 8003b96:	69e3      	ldr	r3, [r4, #28]
 8003b98:	68db      	ldr	r3, [r3, #12]
 8003b9a:	5959      	ldr	r1, [r3, r5]
 8003b9c:	b9b1      	cbnz	r1, 8003bcc <_reclaim_reent+0x4c>
 8003b9e:	3504      	adds	r5, #4
 8003ba0:	2d80      	cmp	r5, #128	@ 0x80
 8003ba2:	d1f8      	bne.n	8003b96 <_reclaim_reent+0x16>
 8003ba4:	69e3      	ldr	r3, [r4, #28]
 8003ba6:	4620      	mov	r0, r4
 8003ba8:	68d9      	ldr	r1, [r3, #12]
 8003baa:	f000 f8ab 	bl	8003d04 <_free_r>
 8003bae:	69e3      	ldr	r3, [r4, #28]
 8003bb0:	6819      	ldr	r1, [r3, #0]
 8003bb2:	b111      	cbz	r1, 8003bba <_reclaim_reent+0x3a>
 8003bb4:	4620      	mov	r0, r4
 8003bb6:	f000 f8a5 	bl	8003d04 <_free_r>
 8003bba:	69e3      	ldr	r3, [r4, #28]
 8003bbc:	689d      	ldr	r5, [r3, #8]
 8003bbe:	b15d      	cbz	r5, 8003bd8 <_reclaim_reent+0x58>
 8003bc0:	4629      	mov	r1, r5
 8003bc2:	4620      	mov	r0, r4
 8003bc4:	682d      	ldr	r5, [r5, #0]
 8003bc6:	f000 f89d 	bl	8003d04 <_free_r>
 8003bca:	e7f8      	b.n	8003bbe <_reclaim_reent+0x3e>
 8003bcc:	680e      	ldr	r6, [r1, #0]
 8003bce:	4620      	mov	r0, r4
 8003bd0:	f000 f898 	bl	8003d04 <_free_r>
 8003bd4:	4631      	mov	r1, r6
 8003bd6:	e7e1      	b.n	8003b9c <_reclaim_reent+0x1c>
 8003bd8:	6961      	ldr	r1, [r4, #20]
 8003bda:	b111      	cbz	r1, 8003be2 <_reclaim_reent+0x62>
 8003bdc:	4620      	mov	r0, r4
 8003bde:	f000 f891 	bl	8003d04 <_free_r>
 8003be2:	69e1      	ldr	r1, [r4, #28]
 8003be4:	b111      	cbz	r1, 8003bec <_reclaim_reent+0x6c>
 8003be6:	4620      	mov	r0, r4
 8003be8:	f000 f88c 	bl	8003d04 <_free_r>
 8003bec:	6b21      	ldr	r1, [r4, #48]	@ 0x30
 8003bee:	b111      	cbz	r1, 8003bf6 <_reclaim_reent+0x76>
 8003bf0:	4620      	mov	r0, r4
 8003bf2:	f000 f887 	bl	8003d04 <_free_r>
 8003bf6:	6b61      	ldr	r1, [r4, #52]	@ 0x34
 8003bf8:	b111      	cbz	r1, 8003c00 <_reclaim_reent+0x80>
 8003bfa:	4620      	mov	r0, r4
 8003bfc:	f000 f882 	bl	8003d04 <_free_r>
 8003c00:	6ba1      	ldr	r1, [r4, #56]	@ 0x38
 8003c02:	b111      	cbz	r1, 8003c0a <_reclaim_reent+0x8a>
 8003c04:	4620      	mov	r0, r4
 8003c06:	f000 f87d 	bl	8003d04 <_free_r>
 8003c0a:	6ca1      	ldr	r1, [r4, #72]	@ 0x48
 8003c0c:	b111      	cbz	r1, 8003c14 <_reclaim_reent+0x94>
 8003c0e:	4620      	mov	r0, r4
 8003c10:	f000 f878 	bl	8003d04 <_free_r>
 8003c14:	6c61      	ldr	r1, [r4, #68]	@ 0x44
 8003c16:	b111      	cbz	r1, 8003c1e <_reclaim_reent+0x9e>
 8003c18:	4620      	mov	r0, r4
 8003c1a:	f000 f873 	bl	8003d04 <_free_r>
 8003c1e:	6ae1      	ldr	r1, [r4, #44]	@ 0x2c
 8003c20:	b111      	cbz	r1, 8003c28 <_reclaim_reent+0xa8>
 8003c22:	4620      	mov	r0, r4
 8003c24:	f000 f86e 	bl	8003d04 <_free_r>
 8003c28:	6a23      	ldr	r3, [r4, #32]
 8003c2a:	b11b      	cbz	r3, 8003c34 <_reclaim_reent+0xb4>
 8003c2c:	4620      	mov	r0, r4
 8003c2e:	e8bd 4070 	ldmia.w	sp!, {r4, r5, r6, lr}
 8003c32:	4718      	bx	r3
 8003c34:	bd70      	pop	{r4, r5, r6, pc}
 8003c36:	bf00      	nop
 8003c38:	2000001c 	.word	0x2000001c

08003c3c <_lseek_r>:
 8003c3c:	b538      	push	{r3, r4, r5, lr}
 8003c3e:	4604      	mov	r4, r0
 8003c40:	4608      	mov	r0, r1
 8003c42:	4611      	mov	r1, r2
 8003c44:	2200      	movs	r2, #0
 8003c46:	4d05      	ldr	r5, [pc, #20]	@ (8003c5c <_lseek_r+0x20>)
 8003c48:	602a      	str	r2, [r5, #0]
 8003c4a:	461a      	mov	r2, r3
 8003c4c:	f7fc fd9c 	bl	8000788 <_lseek>
 8003c50:	1c43      	adds	r3, r0, #1
 8003c52:	d102      	bne.n	8003c5a <_lseek_r+0x1e>
 8003c54:	682b      	ldr	r3, [r5, #0]
 8003c56:	b103      	cbz	r3, 8003c5a <_lseek_r+0x1e>
 8003c58:	6023      	str	r3, [r4, #0]
 8003c5a:	bd38      	pop	{r3, r4, r5, pc}
 8003c5c:	20001348 	.word	0x20001348

08003c60 <_read_r>:
 8003c60:	b538      	push	{r3, r4, r5, lr}
 8003c62:	4604      	mov	r4, r0
 8003c64:	4608      	mov	r0, r1
 8003c66:	4611      	mov	r1, r2
 8003c68:	2200      	movs	r2, #0
 8003c6a:	4d05      	ldr	r5, [pc, #20]	@ (8003c80 <_read_r+0x20>)
 8003c6c:	602a      	str	r2, [r5, #0]
 8003c6e:	461a      	mov	r2, r3
 8003c70:	f7fc fd64 	bl	800073c <_read>
 8003c74:	1c43      	adds	r3, r0, #1
 8003c76:	d102      	bne.n	8003c7e <_read_r+0x1e>
 8003c78:	682b      	ldr	r3, [r5, #0]
 8003c7a:	b103      	cbz	r3, 8003c7e <_read_r+0x1e>
 8003c7c:	6023      	str	r3, [r4, #0]
 8003c7e:	bd38      	pop	{r3, r4, r5, pc}
 8003c80:	20001348 	.word	0x20001348

08003c84 <_write_r>:
 8003c84:	b538      	push	{r3, r4, r5, lr}
 8003c86:	4604      	mov	r4, r0
 8003c88:	4608      	mov	r0, r1
 8003c8a:	4611      	mov	r1, r2
 8003c8c:	2200      	movs	r2, #0
 8003c8e:	4d05      	ldr	r5, [pc, #20]	@ (8003ca4 <_write_r+0x20>)
 8003c90:	602a      	str	r2, [r5, #0]
 8003c92:	461a      	mov	r2, r3
 8003c94:	f7fc fd60 	bl	8000758 <_write>
 8003c98:	1c43      	adds	r3, r0, #1
 8003c9a:	d102      	bne.n	8003ca2 <_write_r+0x1e>
 8003c9c:	682b      	ldr	r3, [r5, #0]
 8003c9e:	b103      	cbz	r3, 8003ca2 <_write_r+0x1e>
 8003ca0:	6023      	str	r3, [r4, #0]
 8003ca2:	bd38      	pop	{r3, r4, r5, pc}
 8003ca4:	20001348 	.word	0x20001348

08003ca8 <__errno>:
 8003ca8:	4b01      	ldr	r3, [pc, #4]	@ (8003cb0 <__errno+0x8>)
 8003caa:	6818      	ldr	r0, [r3, #0]
 8003cac:	4770      	bx	lr
 8003cae:	bf00      	nop
 8003cb0:	2000001c 	.word	0x2000001c

08003cb4 <__libc_init_array>:
 8003cb4:	b570      	push	{r4, r5, r6, lr}
 8003cb6:	2600      	movs	r6, #0
 8003cb8:	4d0c      	ldr	r5, [pc, #48]	@ (8003cec <__libc_init_array+0x38>)
 8003cba:	4c0d      	ldr	r4, [pc, #52]	@ (8003cf0 <__libc_init_array+0x3c>)
 8003cbc:	1b64      	subs	r4, r4, r5
 8003cbe:	10a4      	asrs	r4, r4, #2
 8003cc0:	42a6      	cmp	r6, r4
 8003cc2:	d109      	bne.n	8003cd8 <__libc_init_array+0x24>
 8003cc4:	f000 fd62 	bl	800478c <_init>
 8003cc8:	2600      	movs	r6, #0
 8003cca:	4d0a      	ldr	r5, [pc, #40]	@ (8003cf4 <__libc_init_array+0x40>)
 8003ccc:	4c0a      	ldr	r4, [pc, #40]	@ (8003cf8 <__libc_init_array+0x44>)
 8003cce:	1b64      	subs	r4, r4, r5
 8003cd0:	10a4      	asrs	r4, r4, #2
 8003cd2:	42a6      	cmp	r6, r4
 8003cd4:	d105      	bne.n	8003ce2 <__libc_init_array+0x2e>
 8003cd6:	bd70      	pop	{r4, r5, r6, pc}
 8003cd8:	f855 3b04 	ldr.w	r3, [r5], #4
 8003cdc:	4798      	blx	r3
 8003cde:	3601      	adds	r6, #1
 8003ce0:	e7ee      	b.n	8003cc0 <__libc_init_array+0xc>
 8003ce2:	f855 3b04 	ldr.w	r3, [r5], #4
 8003ce6:	4798      	blx	r3
 8003ce8:	3601      	adds	r6, #1
 8003cea:	e7f2      	b.n	8003cd2 <__libc_init_array+0x1e>
 8003cec:	080048bc 	.word	0x080048bc
 8003cf0:	080048bc 	.word	0x080048bc
 8003cf4:	080048bc 	.word	0x080048bc
 8003cf8:	080048c0 	.word	0x080048c0

08003cfc <__retarget_lock_init_recursive>:
 8003cfc:	4770      	bx	lr

08003cfe <__retarget_lock_acquire_recursive>:
 8003cfe:	4770      	bx	lr

08003d00 <__retarget_lock_release_recursive>:
 8003d00:	4770      	bx	lr
	...

08003d04 <_free_r>:
 8003d04:	b538      	push	{r3, r4, r5, lr}
 8003d06:	4605      	mov	r5, r0
 8003d08:	2900      	cmp	r1, #0
 8003d0a:	d040      	beq.n	8003d8e <_free_r+0x8a>
 8003d0c:	f851 3c04 	ldr.w	r3, [r1, #-4]
 8003d10:	1f0c      	subs	r4, r1, #4
 8003d12:	2b00      	cmp	r3, #0
 8003d14:	bfb8      	it	lt
 8003d16:	18e4      	addlt	r4, r4, r3
 8003d18:	f000 f8de 	bl	8003ed8 <__malloc_lock>
 8003d1c:	4a1c      	ldr	r2, [pc, #112]	@ (8003d90 <_free_r+0x8c>)
 8003d1e:	6813      	ldr	r3, [r2, #0]
 8003d20:	b933      	cbnz	r3, 8003d30 <_free_r+0x2c>
 8003d22:	6063      	str	r3, [r4, #4]
 8003d24:	6014      	str	r4, [r2, #0]
 8003d26:	4628      	mov	r0, r5
 8003d28:	e8bd 4038 	ldmia.w	sp!, {r3, r4, r5, lr}
 8003d2c:	f000 b8da 	b.w	8003ee4 <__malloc_unlock>
 8003d30:	42a3      	cmp	r3, r4
 8003d32:	d908      	bls.n	8003d46 <_free_r+0x42>
 8003d34:	6820      	ldr	r0, [r4, #0]
 8003d36:	1821      	adds	r1, r4, r0
 8003d38:	428b      	cmp	r3, r1
 8003d3a:	bf01      	itttt	eq
 8003d3c:	6819      	ldreq	r1, [r3, #0]
 8003d3e:	685b      	ldreq	r3, [r3, #4]
 8003d40:	1809      	addeq	r1, r1, r0
 8003d42:	6021      	streq	r1, [r4, #0]
 8003d44:	e7ed      	b.n	8003d22 <_free_r+0x1e>
 8003d46:	461a      	mov	r2, r3
 8003d48:	685b      	ldr	r3, [r3, #4]
 8003d4a:	b10b      	cbz	r3, 8003d50 <_free_r+0x4c>
 8003d4c:	42a3      	cmp	r3, r4
 8003d4e:	d9fa      	bls.n	8003d46 <_free_r+0x42>
 8003d50:	6811      	ldr	r1, [r2, #0]
 8003d52:	1850      	adds	r0, r2, r1
 8003d54:	42a0      	cmp	r0, r4
 8003d56:	d10b      	bne.n	8003d70 <_free_r+0x6c>
 8003d58:	6820      	ldr	r0, [r4, #0]
 8003d5a:	4401      	add	r1, r0
 8003d5c:	1850      	adds	r0, r2, r1
 8003d5e:	4283      	cmp	r3, r0
 8003d60:	6011      	str	r1, [r2, #0]
 8003d62:	d1e0      	bne.n	8003d26 <_free_r+0x22>
 8003d64:	6818      	ldr	r0, [r3, #0]
 8003d66:	685b      	ldr	r3, [r3, #4]
 8003d68:	4408      	add	r0, r1
 8003d6a:	6010      	str	r0, [r2, #0]
 8003d6c:	6053      	str	r3, [r2, #4]
 8003d6e:	e7da      	b.n	8003d26 <_free_r+0x22>
 8003d70:	d902      	bls.n	8003d78 <_free_r+0x74>
 8003d72:	230c      	movs	r3, #12
 8003d74:	602b      	str	r3, [r5, #0]
 8003d76:	e7d6      	b.n	8003d26 <_free_r+0x22>
 8003d78:	6820      	ldr	r0, [r4, #0]
 8003d7a:	1821      	adds	r1, r4, r0
 8003d7c:	428b      	cmp	r3, r1
 8003d7e:	bf01      	itttt	eq
 8003d80:	6819      	ldreq	r1, [r3, #0]
 8003d82:	685b      	ldreq	r3, [r3, #4]
 8003d84:	1809      	addeq	r1, r1, r0
 8003d86:	6021      	streq	r1, [r4, #0]
 8003d88:	6063      	str	r3, [r4, #4]
 8003d8a:	6054      	str	r4, [r2, #4]
 8003d8c:	e7cb      	b.n	8003d26 <_free_r+0x22>
 8003d8e:	bd38      	pop	{r3, r4, r5, pc}
 8003d90:	20001354 	.word	0x20001354

08003d94 <sbrk_aligned>:
 8003d94:	b570      	push	{r4, r5, r6, lr}
 8003d96:	4e0f      	ldr	r6, [pc, #60]	@ (8003dd4 <sbrk_aligned+0x40>)
 8003d98:	460c      	mov	r4, r1
 8003d9a:	6831      	ldr	r1, [r6, #0]
 8003d9c:	4605      	mov	r5, r0
 8003d9e:	b911      	cbnz	r1, 8003da6 <sbrk_aligned+0x12>
 8003da0:	f000 fcd6 	bl	8004750 <_sbrk_r>
 8003da4:	6030      	str	r0, [r6, #0]
 8003da6:	4621      	mov	r1, r4
 8003da8:	4628      	mov	r0, r5
 8003daa:	f000 fcd1 	bl	8004750 <_sbrk_r>
 8003dae:	1c43      	adds	r3, r0, #1
 8003db0:	d103      	bne.n	8003dba <sbrk_aligned+0x26>
 8003db2:	f04f 34ff 	mov.w	r4, #4294967295
 8003db6:	4620      	mov	r0, r4
 8003db8:	bd70      	pop	{r4, r5, r6, pc}
 8003dba:	1cc4      	adds	r4, r0, #3
 8003dbc:	f024 0403 	bic.w	r4, r4, #3
 8003dc0:	42a0      	cmp	r0, r4
 8003dc2:	d0f8      	beq.n	8003db6 <sbrk_aligned+0x22>
 8003dc4:	1a21      	subs	r1, r4, r0
 8003dc6:	4628      	mov	r0, r5
 8003dc8:	f000 fcc2 	bl	8004750 <_sbrk_r>
 8003dcc:	3001      	adds	r0, #1
 8003dce:	d1f2      	bne.n	8003db6 <sbrk_aligned+0x22>
 8003dd0:	e7ef      	b.n	8003db2 <sbrk_aligned+0x1e>
 8003dd2:	bf00      	nop
 8003dd4:	20001350 	.word	0x20001350

08003dd8 <_malloc_r>:
 8003dd8:	e92d 43f8 	stmdb	sp!, {r3, r4, r5, r6, r7, r8, r9, lr}
 8003ddc:	1ccd      	adds	r5, r1, #3
 8003dde:	f025 0503 	bic.w	r5, r5, #3
 8003de2:	3508      	adds	r5, #8
 8003de4:	2d0c      	cmp	r5, #12
 8003de6:	bf38      	it	cc
 8003de8:	250c      	movcc	r5, #12
 8003dea:	2d00      	cmp	r5, #0
 8003dec:	4606      	mov	r6, r0
 8003dee:	db01      	blt.n	8003df4 <_malloc_r+0x1c>
 8003df0:	42a9      	cmp	r1, r5
 8003df2:	d904      	bls.n	8003dfe <_malloc_r+0x26>
 8003df4:	230c      	movs	r3, #12
 8003df6:	6033      	str	r3, [r6, #0]
 8003df8:	2000      	movs	r0, #0
 8003dfa:	e8bd 83f8 	ldmia.w	sp!, {r3, r4, r5, r6, r7, r8, r9, pc}
 8003dfe:	f8df 80d4 	ldr.w	r8, [pc, #212]	@ 8003ed4 <_malloc_r+0xfc>
 8003e02:	f000 f869 	bl	8003ed8 <__malloc_lock>
 8003e06:	f8d8 3000 	ldr.w	r3, [r8]
 8003e0a:	461c      	mov	r4, r3
 8003e0c:	bb44      	cbnz	r4, 8003e60 <_malloc_r+0x88>
 8003e0e:	4629      	mov	r1, r5
 8003e10:	4630      	mov	r0, r6
 8003e12:	f7ff ffbf 	bl	8003d94 <sbrk_aligned>
 8003e16:	1c43      	adds	r3, r0, #1
 8003e18:	4604      	mov	r4, r0
 8003e1a:	d158      	bne.n	8003ece <_malloc_r+0xf6>
 8003e1c:	f8d8 4000 	ldr.w	r4, [r8]
 8003e20:	4627      	mov	r7, r4
 8003e22:	2f00      	cmp	r7, #0
 8003e24:	d143      	bne.n	8003eae <_malloc_r+0xd6>
 8003e26:	2c00      	cmp	r4, #0
 8003e28:	d04b      	beq.n	8003ec2 <_malloc_r+0xea>
 8003e2a:	6823      	ldr	r3, [r4, #0]
 8003e2c:	4639      	mov	r1, r7
 8003e2e:	4630      	mov	r0, r6
 8003e30:	eb04 0903 	add.w	r9, r4, r3
 8003e34:	f000 fc8c 	bl	8004750 <_sbrk_r>
 8003e38:	4581      	cmp	r9, r0
 8003e3a:	d142      	bne.n	8003ec2 <_malloc_r+0xea>
 8003e3c:	6821      	ldr	r1, [r4, #0]
 8003e3e:	4630      	mov	r0, r6
 8003e40:	1a6d      	subs	r5, r5, r1
 8003e42:	4629      	mov	r1, r5
 8003e44:	f7ff ffa6 	bl	8003d94 <sbrk_aligned>
 8003e48:	3001      	adds	r0, #1
 8003e4a:	d03a      	beq.n	8003ec2 <_malloc_r+0xea>
 8003e4c:	6823      	ldr	r3, [r4, #0]
 8003e4e:	442b      	add	r3, r5
 8003e50:	6023      	str	r3, [r4, #0]
 8003e52:	f8d8 3000 	ldr.w	r3, [r8]
 8003e56:	685a      	ldr	r2, [r3, #4]
 8003e58:	bb62      	cbnz	r2, 8003eb4 <_malloc_r+0xdc>
 8003e5a:	f8c8 7000 	str.w	r7, [r8]
 8003e5e:	e00f      	b.n	8003e80 <_malloc_r+0xa8>
 8003e60:	6822      	ldr	r2, [r4, #0]
 8003e62:	1b52      	subs	r2, r2, r5
 8003e64:	d420      	bmi.n	8003ea8 <_malloc_r+0xd0>
 8003e66:	2a0b      	cmp	r2, #11
 8003e68:	d917      	bls.n	8003e9a <_malloc_r+0xc2>
 8003e6a:	1961      	adds	r1, r4, r5
 8003e6c:	42a3      	cmp	r3, r4
 8003e6e:	6025      	str	r5, [r4, #0]
 8003e70:	bf18      	it	ne
 8003e72:	6059      	strne	r1, [r3, #4]
 8003e74:	6863      	ldr	r3, [r4, #4]
 8003e76:	bf08      	it	eq
 8003e78:	f8c8 1000 	streq.w	r1, [r8]
 8003e7c:	5162      	str	r2, [r4, r5]
 8003e7e:	604b      	str	r3, [r1, #4]
 8003e80:	4630      	mov	r0, r6
 8003e82:	f000 f82f 	bl	8003ee4 <__malloc_unlock>
 8003e86:	f104 000b 	add.w	r0, r4, #11
 8003e8a:	1d23      	adds	r3, r4, #4
 8003e8c:	f020 0007 	bic.w	r0, r0, #7
 8003e90:	1ac2      	subs	r2, r0, r3
 8003e92:	bf1c      	itt	ne
 8003e94:	1a1b      	subne	r3, r3, r0
 8003e96:	50a3      	strne	r3, [r4, r2]
 8003e98:	e7af      	b.n	8003dfa <_malloc_r+0x22>
 8003e9a:	6862      	ldr	r2, [r4, #4]
 8003e9c:	42a3      	cmp	r3, r4
 8003e9e:	bf0c      	ite	eq
 8003ea0:	f8c8 2000 	streq.w	r2, [r8]
 8003ea4:	605a      	strne	r2, [r3, #4]
 8003ea6:	e7eb      	b.n	8003e80 <_malloc_r+0xa8>
 8003ea8:	4623      	mov	r3, r4
 8003eaa:	6864      	ldr	r4, [r4, #4]
 8003eac:	e7ae      	b.n	8003e0c <_malloc_r+0x34>
 8003eae:	463c      	mov	r4, r7
 8003eb0:	687f      	ldr	r7, [r7, #4]
 8003eb2:	e7b6      	b.n	8003e22 <_malloc_r+0x4a>
 8003eb4:	461a      	mov	r2, r3
 8003eb6:	685b      	ldr	r3, [r3, #4]
 8003eb8:	42a3      	cmp	r3, r4
 8003eba:	d1fb      	bne.n	8003eb4 <_malloc_r+0xdc>
 8003ebc:	2300      	movs	r3, #0
 8003ebe:	6053      	str	r3, [r2, #4]
 8003ec0:	e7de      	b.n	8003e80 <_malloc_r+0xa8>
 8003ec2:	230c      	movs	r3, #12
 8003ec4:	4630      	mov	r0, r6
 8003ec6:	6033      	str	r3, [r6, #0]
 8003ec8:	f000 f80c 	bl	8003ee4 <__malloc_unlock>
 8003ecc:	e794      	b.n	8003df8 <_malloc_r+0x20>
 8003ece:	6005      	str	r5, [r0, #0]
 8003ed0:	e7d6      	b.n	8003e80 <_malloc_r+0xa8>
 8003ed2:	bf00      	nop
 8003ed4:	20001354 	.word	0x20001354

08003ed8 <__malloc_lock>:
 8003ed8:	4801      	ldr	r0, [pc, #4]	@ (8003ee0 <__malloc_lock+0x8>)
 8003eda:	f7ff bf10 	b.w	8003cfe <__retarget_lock_acquire_recursive>
 8003ede:	bf00      	nop
 8003ee0:	2000134c 	.word	0x2000134c

08003ee4 <__malloc_unlock>:
 8003ee4:	4801      	ldr	r0, [pc, #4]	@ (8003eec <__malloc_unlock+0x8>)
 8003ee6:	f7ff bf0b 	b.w	8003d00 <__retarget_lock_release_recursive>
 8003eea:	bf00      	nop
 8003eec:	2000134c 	.word	0x2000134c

08003ef0 <__sfputc_r>:
 8003ef0:	6893      	ldr	r3, [r2, #8]
 8003ef2:	b410      	push	{r4}
 8003ef4:	3b01      	subs	r3, #1
 8003ef6:	2b00      	cmp	r3, #0
 8003ef8:	6093      	str	r3, [r2, #8]
 8003efa:	da07      	bge.n	8003f0c <__sfputc_r+0x1c>
 8003efc:	6994      	ldr	r4, [r2, #24]
 8003efe:	42a3      	cmp	r3, r4
 8003f00:	db01      	blt.n	8003f06 <__sfputc_r+0x16>
 8003f02:	290a      	cmp	r1, #10
 8003f04:	d102      	bne.n	8003f0c <__sfputc_r+0x1c>
 8003f06:	bc10      	pop	{r4}
 8003f08:	f7ff bd8d 	b.w	8003a26 <__swbuf_r>
 8003f0c:	6813      	ldr	r3, [r2, #0]
 8003f0e:	1c58      	adds	r0, r3, #1
 8003f10:	6010      	str	r0, [r2, #0]
 8003f12:	7019      	strb	r1, [r3, #0]
 8003f14:	4608      	mov	r0, r1
 8003f16:	bc10      	pop	{r4}
 8003f18:	4770      	bx	lr

08003f1a <__sfputs_r>:
 8003f1a:	b5f8      	push	{r3, r4, r5, r6, r7, lr}
 8003f1c:	4606      	mov	r6, r0
 8003f1e:	460f      	mov	r7, r1
 8003f20:	4614      	mov	r4, r2
 8003f22:	18d5      	adds	r5, r2, r3
 8003f24:	42ac      	cmp	r4, r5
 8003f26:	d101      	bne.n	8003f2c <__sfputs_r+0x12>
 8003f28:	2000      	movs	r0, #0
 8003f2a:	e007      	b.n	8003f3c <__sfputs_r+0x22>
 8003f2c:	463a      	mov	r2, r7
 8003f2e:	4630      	mov	r0, r6
 8003f30:	f814 1b01 	ldrb.w	r1, [r4], #1
 8003f34:	f7ff ffdc 	bl	8003ef0 <__sfputc_r>
 8003f38:	1c43      	adds	r3, r0, #1
 8003f3a:	d1f3      	bne.n	8003f24 <__sfputs_r+0xa>
 8003f3c:	bdf8      	pop	{r3, r4, r5, r6, r7, pc}
	...

08003f40 <_vfiprintf_r>:
 8003f40:	e92d 4ff0 	stmdb	sp!, {r4, r5, r6, r7, r8, r9, sl, fp, lr}
 8003f44:	460d      	mov	r5, r1
 8003f46:	4614      	mov	r4, r2
 8003f48:	4698      	mov	r8, r3
 8003f4a:	4606      	mov	r6, r0
 8003f4c:	b09d      	sub	sp, #116	@ 0x74
 8003f4e:	b118      	cbz	r0, 8003f58 <_vfiprintf_r+0x18>
 8003f50:	6a03      	ldr	r3, [r0, #32]
 8003f52:	b90b      	cbnz	r3, 8003f58 <_vfiprintf_r+0x18>
 8003f54:	f7ff fc76 	bl	8003844 <__sinit>
 8003f58:	6e6b      	ldr	r3, [r5, #100]	@ 0x64
 8003f5a:	07d9      	lsls	r1, r3, #31
 8003f5c:	d405      	bmi.n	8003f6a <_vfiprintf_r+0x2a>
 8003f5e:	89ab      	ldrh	r3, [r5, #12]
 8003f60:	059a      	lsls	r2, r3, #22
 8003f62:	d402      	bmi.n	8003f6a <_vfiprintf_r+0x2a>
 8003f64:	6da8      	ldr	r0, [r5, #88]	@ 0x58
 8003f66:	f7ff feca 	bl	8003cfe <__retarget_lock_acquire_recursive>
 8003f6a:	89ab      	ldrh	r3, [r5, #12]
 8003f6c:	071b      	lsls	r3, r3, #28
 8003f6e:	d501      	bpl.n	8003f74 <_vfiprintf_r+0x34>
 8003f70:	692b      	ldr	r3, [r5, #16]
 8003f72:	b99b      	cbnz	r3, 8003f9c <_vfiprintf_r+0x5c>
 8003f74:	4629      	mov	r1, r5
 8003f76:	4630      	mov	r0, r6
 8003f78:	f7ff fd94 	bl	8003aa4 <__swsetup_r>
 8003f7c:	b170      	cbz	r0, 8003f9c <_vfiprintf_r+0x5c>
 8003f7e:	6e6b      	ldr	r3, [r5, #100]	@ 0x64
 8003f80:	07dc      	lsls	r4, r3, #31
 8003f82:	d504      	bpl.n	8003f8e <_vfiprintf_r+0x4e>
 8003f84:	f04f 30ff 	mov.w	r0, #4294967295
 8003f88:	b01d      	add	sp, #116	@ 0x74
 8003f8a:	e8bd 8ff0 	ldmia.w	sp!, {r4, r5, r6, r7, r8, r9, sl, fp, pc}
 8003f8e:	89ab      	ldrh	r3, [r5, #12]
 8003f90:	0598      	lsls	r0, r3, #22
 8003f92:	d4f7      	bmi.n	8003f84 <_vfiprintf_r+0x44>
 8003f94:	6da8      	ldr	r0, [r5, #88]	@ 0x58
 8003f96:	f7ff feb3 	bl	8003d00 <__retarget_lock_release_recursive>
 8003f9a:	e7f3      	b.n	8003f84 <_vfiprintf_r+0x44>
 8003f9c:	2300      	movs	r3, #0
 8003f9e:	9309      	str	r3, [sp, #36]	@ 0x24
 8003fa0:	2320      	movs	r3, #32
 8003fa2:	f88d 3029 	strb.w	r3, [sp, #41]	@ 0x29
 8003fa6:	2330      	movs	r3, #48	@ 0x30
 8003fa8:	f04f 0901 	mov.w	r9, #1
 8003fac:	f8cd 800c 	str.w	r8, [sp, #12]
 8003fb0:	f8df 81a8 	ldr.w	r8, [pc, #424]	@ 800415c <_vfiprintf_r+0x21c>
 8003fb4:	f88d 302a 	strb.w	r3, [sp, #42]	@ 0x2a
 8003fb8:	4623      	mov	r3, r4
 8003fba:	469a      	mov	sl, r3
 8003fbc:	f813 2b01 	ldrb.w	r2, [r3], #1
 8003fc0:	b10a      	cbz	r2, 8003fc6 <_vfiprintf_r+0x86>
 8003fc2:	2a25      	cmp	r2, #37	@ 0x25
 8003fc4:	d1f9      	bne.n	8003fba <_vfiprintf_r+0x7a>
 8003fc6:	ebba 0b04 	subs.w	fp, sl, r4
 8003fca:	d00b      	beq.n	8003fe4 <_vfiprintf_r+0xa4>
 8003fcc:	465b      	mov	r3, fp
 8003fce:	4622      	mov	r2, r4
 8003fd0:	4629      	mov	r1, r5
 8003fd2:	4630      	mov	r0, r6
 8003fd4:	f7ff ffa1 	bl	8003f1a <__sfputs_r>
 8003fd8:	3001      	adds	r0, #1
 8003fda:	f000 80a7 	beq.w	800412c <_vfiprintf_r+0x1ec>
 8003fde:	9a09      	ldr	r2, [sp, #36]	@ 0x24
 8003fe0:	445a      	add	r2, fp
 8003fe2:	9209      	str	r2, [sp, #36]	@ 0x24
 8003fe4:	f89a 3000 	ldrb.w	r3, [sl]
 8003fe8:	2b00      	cmp	r3, #0
 8003fea:	f000 809f 	beq.w	800412c <_vfiprintf_r+0x1ec>
 8003fee:	2300      	movs	r3, #0
 8003ff0:	f04f 32ff 	mov.w	r2, #4294967295
 8003ff4:	e9cd 2305 	strd	r2, r3, [sp, #20]
 8003ff8:	f10a 0a01 	add.w	sl, sl, #1
 8003ffc:	9304      	str	r3, [sp, #16]
 8003ffe:	9307      	str	r3, [sp, #28]
 8004000:	f88d 3053 	strb.w	r3, [sp, #83]	@ 0x53
 8004004:	931a      	str	r3, [sp, #104]	@ 0x68
 8004006:	4654      	mov	r4, sl
 8004008:	2205      	movs	r2, #5
 800400a:	f814 1b01 	ldrb.w	r1, [r4], #1
 800400e:	4853      	ldr	r0, [pc, #332]	@ (800415c <_vfiprintf_r+0x21c>)
 8004010:	f000 fbae 	bl	8004770 <memchr>
 8004014:	9a04      	ldr	r2, [sp, #16]
 8004016:	b9d8      	cbnz	r0, 8004050 <_vfiprintf_r+0x110>
 8004018:	06d1      	lsls	r1, r2, #27
 800401a:	bf44      	itt	mi
 800401c:	2320      	movmi	r3, #32
 800401e:	f88d 3053 	strbmi.w	r3, [sp, #83]	@ 0x53
 8004022:	0713      	lsls	r3, r2, #28
 8004024:	bf44      	itt	mi
 8004026:	232b      	movmi	r3, #43	@ 0x2b
 8004028:	f88d 3053 	strbmi.w	r3, [sp, #83]	@ 0x53
 800402c:	f89a 3000 	ldrb.w	r3, [sl]
 8004030:	2b2a      	cmp	r3, #42	@ 0x2a
 8004032:	d015      	beq.n	8004060 <_vfiprintf_r+0x120>
 8004034:	4654      	mov	r4, sl
 8004036:	2000      	movs	r0, #0
 8004038:	f04f 0c0a 	mov.w	ip, #10
 800403c:	9a07      	ldr	r2, [sp, #28]
 800403e:	4621      	mov	r1, r4
 8004040:	f811 3b01 	ldrb.w	r3, [r1], #1
 8004044:	3b30      	subs	r3, #48	@ 0x30
 8004046:	2b09      	cmp	r3, #9
 8004048:	d94b      	bls.n	80040e2 <_vfiprintf_r+0x1a2>
 800404a:	b1b0      	cbz	r0, 800407a <_vfiprintf_r+0x13a>
 800404c:	9207      	str	r2, [sp, #28]
 800404e:	e014      	b.n	800407a <_vfiprintf_r+0x13a>
 8004050:	eba0 0308 	sub.w	r3, r0, r8
 8004054:	fa09 f303 	lsl.w	r3, r9, r3
 8004058:	4313      	orrs	r3, r2
 800405a:	46a2      	mov	sl, r4
 800405c:	9304      	str	r3, [sp, #16]
 800405e:	e7d2      	b.n	8004006 <_vfiprintf_r+0xc6>
 8004060:	9b03      	ldr	r3, [sp, #12]
 8004062:	1d19      	adds	r1, r3, #4
 8004064:	681b      	ldr	r3, [r3, #0]
 8004066:	9103      	str	r1, [sp, #12]
 8004068:	2b00      	cmp	r3, #0
 800406a:	bfbb      	ittet	lt
 800406c:	425b      	neglt	r3, r3
 800406e:	f042 0202 	orrlt.w	r2, r2, #2
 8004072:	9307      	strge	r3, [sp, #28]
 8004074:	9307      	strlt	r3, [sp, #28]
 8004076:	bfb8      	it	lt
 8004078:	9204      	strlt	r2, [sp, #16]
 800407a:	7823      	ldrb	r3, [r4, #0]
 800407c:	2b2e      	cmp	r3, #46	@ 0x2e
 800407e:	d10a      	bne.n	8004096 <_vfiprintf_r+0x156>
 8004080:	7863      	ldrb	r3, [r4, #1]
 8004082:	2b2a      	cmp	r3, #42	@ 0x2a
 8004084:	d132      	bne.n	80040ec <_vfiprintf_r+0x1ac>
 8004086:	9b03      	ldr	r3, [sp, #12]
 8004088:	3402      	adds	r4, #2
 800408a:	1d1a      	adds	r2, r3, #4
 800408c:	681b      	ldr	r3, [r3, #0]
 800408e:	9203      	str	r2, [sp, #12]
 8004090:	ea43 73e3 	orr.w	r3, r3, r3, asr #31
 8004094:	9305      	str	r3, [sp, #20]
 8004096:	f8df a0c8 	ldr.w	sl, [pc, #200]	@ 8004160 <_vfiprintf_r+0x220>
 800409a:	2203      	movs	r2, #3
 800409c:	4650      	mov	r0, sl
 800409e:	7821      	ldrb	r1, [r4, #0]
 80040a0:	f000 fb66 	bl	8004770 <memchr>
 80040a4:	b138      	cbz	r0, 80040b6 <_vfiprintf_r+0x176>
 80040a6:	2240      	movs	r2, #64	@ 0x40
 80040a8:	9b04      	ldr	r3, [sp, #16]
 80040aa:	eba0 000a 	sub.w	r0, r0, sl
 80040ae:	4082      	lsls	r2, r0
 80040b0:	4313      	orrs	r3, r2
 80040b2:	3401      	adds	r4, #1
 80040b4:	9304      	str	r3, [sp, #16]
 80040b6:	f814 1b01 	ldrb.w	r1, [r4], #1
 80040ba:	2206      	movs	r2, #6
 80040bc:	4829      	ldr	r0, [pc, #164]	@ (8004164 <_vfiprintf_r+0x224>)
 80040be:	f88d 1028 	strb.w	r1, [sp, #40]	@ 0x28
 80040c2:	f000 fb55 	bl	8004770 <memchr>
 80040c6:	2800      	cmp	r0, #0
 80040c8:	d03f      	beq.n	800414a <_vfiprintf_r+0x20a>
 80040ca:	4b27      	ldr	r3, [pc, #156]	@ (8004168 <_vfiprintf_r+0x228>)
 80040cc:	bb1b      	cbnz	r3, 8004116 <_vfiprintf_r+0x1d6>
 80040ce:	9b03      	ldr	r3, [sp, #12]
 80040d0:	3307      	adds	r3, #7
 80040d2:	f023 0307 	bic.w	r3, r3, #7
 80040d6:	3308      	adds	r3, #8
 80040d8:	9303      	str	r3, [sp, #12]
 80040da:	9b09      	ldr	r3, [sp, #36]	@ 0x24
 80040dc:	443b      	add	r3, r7
 80040de:	9309      	str	r3, [sp, #36]	@ 0x24
 80040e0:	e76a      	b.n	8003fb8 <_vfiprintf_r+0x78>
 80040e2:	460c      	mov	r4, r1
 80040e4:	2001      	movs	r0, #1
 80040e6:	fb0c 3202 	mla	r2, ip, r2, r3
 80040ea:	e7a8      	b.n	800403e <_vfiprintf_r+0xfe>
 80040ec:	2300      	movs	r3, #0
 80040ee:	f04f 0c0a 	mov.w	ip, #10
 80040f2:	4619      	mov	r1, r3
 80040f4:	3401      	adds	r4, #1
 80040f6:	9305      	str	r3, [sp, #20]
 80040f8:	4620      	mov	r0, r4
 80040fa:	f810 2b01 	ldrb.w	r2, [r0], #1
 80040fe:	3a30      	subs	r2, #48	@ 0x30
 8004100:	2a09      	cmp	r2, #9
 8004102:	d903      	bls.n	800410c <_vfiprintf_r+0x1cc>
 8004104:	2b00      	cmp	r3, #0
 8004106:	d0c6      	beq.n	8004096 <_vfiprintf_r+0x156>
 8004108:	9105      	str	r1, [sp, #20]
 800410a:	e7c4      	b.n	8004096 <_vfiprintf_r+0x156>
 800410c:	4604      	mov	r4, r0
 800410e:	2301      	movs	r3, #1
 8004110:	fb0c 2101 	mla	r1, ip, r1, r2
 8004114:	e7f0      	b.n	80040f8 <_vfiprintf_r+0x1b8>
 8004116:	ab03      	add	r3, sp, #12
 8004118:	9300      	str	r3, [sp, #0]
 800411a:	462a      	mov	r2, r5
 800411c:	4630      	mov	r0, r6
 800411e:	4b13      	ldr	r3, [pc, #76]	@ (800416c <_vfiprintf_r+0x22c>)
 8004120:	a904      	add	r1, sp, #16
 8004122:	f3af 8000 	nop.w
 8004126:	4607      	mov	r7, r0
 8004128:	1c78      	adds	r0, r7, #1
 800412a:	d1d6      	bne.n	80040da <_vfiprintf_r+0x19a>
 800412c:	6e6b      	ldr	r3, [r5, #100]	@ 0x64
 800412e:	07d9      	lsls	r1, r3, #31
 8004130:	d405      	bmi.n	800413e <_vfiprintf_r+0x1fe>
 8004132:	89ab      	ldrh	r3, [r5, #12]
 8004134:	059a      	lsls	r2, r3, #22
 8004136:	d402      	bmi.n	800413e <_vfiprintf_r+0x1fe>
 8004138:	6da8      	ldr	r0, [r5, #88]	@ 0x58
 800413a:	f7ff fde1 	bl	8003d00 <__retarget_lock_release_recursive>
 800413e:	89ab      	ldrh	r3, [r5, #12]
 8004140:	065b      	lsls	r3, r3, #25
 8004142:	f53f af1f 	bmi.w	8003f84 <_vfiprintf_r+0x44>
 8004146:	9809      	ldr	r0, [sp, #36]	@ 0x24
 8004148:	e71e      	b.n	8003f88 <_vfiprintf_r+0x48>
 800414a:	ab03      	add	r3, sp, #12
 800414c:	9300      	str	r3, [sp, #0]
 800414e:	462a      	mov	r2, r5
 8004150:	4630      	mov	r0, r6
 8004152:	4b06      	ldr	r3, [pc, #24]	@ (800416c <_vfiprintf_r+0x22c>)
 8004154:	a904      	add	r1, sp, #16
 8004156:	f000 f87d 	bl	8004254 <_printf_i>
 800415a:	e7e4      	b.n	8004126 <_vfiprintf_r+0x1e6>
 800415c:	0800485c 	.word	0x0800485c
 8004160:	08004862 	.word	0x08004862
 8004164:	08004866 	.word	0x08004866
 8004168:	00000000 	.word	0x00000000
 800416c:	08003f1b 	.word	0x08003f1b

08004170 <_printf_common>:
 8004170:	e92d 47f0 	stmdb	sp!, {r4, r5, r6, r7, r8, r9, sl, lr}
 8004174:	4616      	mov	r6, r2
 8004176:	4698      	mov	r8, r3
 8004178:	688a      	ldr	r2, [r1, #8]
 800417a:	690b      	ldr	r3, [r1, #16]
 800417c:	4607      	mov	r7, r0
 800417e:	4293      	cmp	r3, r2
 8004180:	bfb8      	it	lt
 8004182:	4613      	movlt	r3, r2
 8004184:	6033      	str	r3, [r6, #0]
 8004186:	f891 2043 	ldrb.w	r2, [r1, #67]	@ 0x43
 800418a:	460c      	mov	r4, r1
 800418c:	f8dd 9020 	ldr.w	r9, [sp, #32]
 8004190:	b10a      	cbz	r2, 8004196 <_printf_common+0x26>
 8004192:	3301      	adds	r3, #1
 8004194:	6033      	str	r3, [r6, #0]
 8004196:	6823      	ldr	r3, [r4, #0]
 8004198:	0699      	lsls	r1, r3, #26
 800419a:	bf42      	ittt	mi
 800419c:	6833      	ldrmi	r3, [r6, #0]
 800419e:	3302      	addmi	r3, #2
 80041a0:	6033      	strmi	r3, [r6, #0]
 80041a2:	6825      	ldr	r5, [r4, #0]
 80041a4:	f015 0506 	ands.w	r5, r5, #6
 80041a8:	d106      	bne.n	80041b8 <_printf_common+0x48>
 80041aa:	f104 0a19 	add.w	sl, r4, #25
 80041ae:	68e3      	ldr	r3, [r4, #12]
 80041b0:	6832      	ldr	r2, [r6, #0]
 80041b2:	1a9b      	subs	r3, r3, r2
 80041b4:	42ab      	cmp	r3, r5
 80041b6:	dc2b      	bgt.n	8004210 <_printf_common+0xa0>
 80041b8:	f894 3043 	ldrb.w	r3, [r4, #67]	@ 0x43
 80041bc:	6822      	ldr	r2, [r4, #0]
 80041be:	3b00      	subs	r3, #0
 80041c0:	bf18      	it	ne
 80041c2:	2301      	movne	r3, #1
 80041c4:	0692      	lsls	r2, r2, #26
 80041c6:	d430      	bmi.n	800422a <_printf_common+0xba>
 80041c8:	4641      	mov	r1, r8
 80041ca:	4638      	mov	r0, r7
 80041cc:	f104 0243 	add.w	r2, r4, #67	@ 0x43
 80041d0:	47c8      	blx	r9
 80041d2:	3001      	adds	r0, #1
 80041d4:	d023      	beq.n	800421e <_printf_common+0xae>
 80041d6:	6823      	ldr	r3, [r4, #0]
 80041d8:	6922      	ldr	r2, [r4, #16]
 80041da:	f003 0306 	and.w	r3, r3, #6
 80041de:	2b04      	cmp	r3, #4
 80041e0:	bf14      	ite	ne
 80041e2:	2500      	movne	r5, #0
 80041e4:	6833      	ldreq	r3, [r6, #0]
 80041e6:	f04f 0600 	mov.w	r6, #0
 80041ea:	bf08      	it	eq
 80041ec:	68e5      	ldreq	r5, [r4, #12]
 80041ee:	f104 041a 	add.w	r4, r4, #26
 80041f2:	bf08      	it	eq
 80041f4:	1aed      	subeq	r5, r5, r3
 80041f6:	f854 3c12 	ldr.w	r3, [r4, #-18]
 80041fa:	bf08      	it	eq
 80041fc:	ea25 75e5 	biceq.w	r5, r5, r5, asr #31
 8004200:	4293      	cmp	r3, r2
 8004202:	bfc4      	itt	gt
 8004204:	1a9b      	subgt	r3, r3, r2
 8004206:	18ed      	addgt	r5, r5, r3
 8004208:	42b5      	cmp	r5, r6
 800420a:	d11a      	bne.n	8004242 <_printf_common+0xd2>
 800420c:	2000      	movs	r0, #0
 800420e:	e008      	b.n	8004222 <_printf_common+0xb2>
 8004210:	2301      	movs	r3, #1
 8004212:	4652      	mov	r2, sl
 8004214:	4641      	mov	r1, r8
 8004216:	4638      	mov	r0, r7
 8004218:	47c8      	blx	r9
 800421a:	3001      	adds	r0, #1
 800421c:	d103      	bne.n	8004226 <_printf_common+0xb6>
 800421e:	f04f 30ff 	mov.w	r0, #4294967295
 8004222:	e8bd 87f0 	ldmia.w	sp!, {r4, r5, r6, r7, r8, r9, sl, pc}
 8004226:	3501      	adds	r5, #1
 8004228:	e7c1      	b.n	80041ae <_printf_common+0x3e>
 800422a:	2030      	movs	r0, #48	@ 0x30
 800422c:	18e1      	adds	r1, r4, r3
 800422e:	f881 0043 	strb.w	r0, [r1, #67]	@ 0x43
 8004232:	1c5a      	adds	r2, r3, #1
 8004234:	f894 1045 	ldrb.w	r1, [r4, #69]	@ 0x45
 8004238:	4422      	add	r2, r4
 800423a:	3302      	adds	r3, #2
 800423c:	f882 1043 	strb.w	r1, [r2, #67]	@ 0x43
 8004240:	e7c2      	b.n	80041c8 <_printf_common+0x58>
 8004242:	2301      	movs	r3, #1
 8004244:	4622      	mov	r2, r4
 8004246:	4641      	mov	r1, r8
 8004248:	4638      	mov	r0, r7
 800424a:	47c8      	blx	r9
 800424c:	3001      	adds	r0, #1
 800424e:	d0e6      	beq.n	800421e <_printf_common+0xae>
 8004250:	3601      	adds	r6, #1
 8004252:	e7d9      	b.n	8004208 <_printf_common+0x98>

08004254 <_printf_i>:
 8004254:	e92d 47ff 	stmdb	sp!, {r0, r1, r2, r3, r4, r5, r6, r7, r8, r9, sl, lr}
 8004258:	7e0f      	ldrb	r7, [r1, #24]
 800425a:	4691      	mov	r9, r2
 800425c:	2f78      	cmp	r7, #120	@ 0x78
 800425e:	4680      	mov	r8, r0
 8004260:	460c      	mov	r4, r1
 8004262:	469a      	mov	sl, r3
 8004264:	9e0c      	ldr	r6, [sp, #48]	@ 0x30
 8004266:	f101 0243 	add.w	r2, r1, #67	@ 0x43
 800426a:	d807      	bhi.n	800427c <_printf_i+0x28>
 800426c:	2f62      	cmp	r7, #98	@ 0x62
 800426e:	d80a      	bhi.n	8004286 <_printf_i+0x32>
 8004270:	2f00      	cmp	r7, #0
 8004272:	f000 80d1 	beq.w	8004418 <_printf_i+0x1c4>
 8004276:	2f58      	cmp	r7, #88	@ 0x58
 8004278:	f000 80b8 	beq.w	80043ec <_printf_i+0x198>
 800427c:	f104 0642 	add.w	r6, r4, #66	@ 0x42
 8004280:	f884 7042 	strb.w	r7, [r4, #66]	@ 0x42
 8004284:	e03a      	b.n	80042fc <_printf_i+0xa8>
 8004286:	f1a7 0363 	sub.w	r3, r7, #99	@ 0x63
 800428a:	2b15      	cmp	r3, #21
 800428c:	d8f6      	bhi.n	800427c <_printf_i+0x28>
 800428e:	a101      	add	r1, pc, #4	@ (adr r1, 8004294 <_printf_i+0x40>)
 8004290:	f851 f023 	ldr.w	pc, [r1, r3, lsl #2]
 8004294:	080042ed 	.word	0x080042ed
 8004298:	08004301 	.word	0x08004301
 800429c:	0800427d 	.word	0x0800427d
 80042a0:	0800427d 	.word	0x0800427d
 80042a4:	0800427d 	.word	0x0800427d
 80042a8:	0800427d 	.word	0x0800427d
 80042ac:	08004301 	.word	0x08004301
 80042b0:	0800427d 	.word	0x0800427d
 80042b4:	0800427d 	.word	0x0800427d
 80042b8:	0800427d 	.word	0x0800427d
 80042bc:	0800427d 	.word	0x0800427d
 80042c0:	080043ff 	.word	0x080043ff
 80042c4:	0800432b 	.word	0x0800432b
 80042c8:	080043b9 	.word	0x080043b9
 80042cc:	0800427d 	.word	0x0800427d
 80042d0:	0800427d 	.word	0x0800427d
 80042d4:	08004421 	.word	0x08004421
 80042d8:	0800427d 	.word	0x0800427d
 80042dc:	0800432b 	.word	0x0800432b
 80042e0:	0800427d 	.word	0x0800427d
 80042e4:	0800427d 	.word	0x0800427d
 80042e8:	080043c1 	.word	0x080043c1
 80042ec:	6833      	ldr	r3, [r6, #0]
 80042ee:	1d1a      	adds	r2, r3, #4
 80042f0:	681b      	ldr	r3, [r3, #0]
 80042f2:	6032      	str	r2, [r6, #0]
 80042f4:	f104 0642 	add.w	r6, r4, #66	@ 0x42
 80042f8:	f884 3042 	strb.w	r3, [r4, #66]	@ 0x42
 80042fc:	2301      	movs	r3, #1
 80042fe:	e09c      	b.n	800443a <_printf_i+0x1e6>
 8004300:	6833      	ldr	r3, [r6, #0]
 8004302:	6820      	ldr	r0, [r4, #0]
 8004304:	1d19      	adds	r1, r3, #4
 8004306:	6031      	str	r1, [r6, #0]
 8004308:	0606      	lsls	r6, r0, #24
 800430a:	d501      	bpl.n	8004310 <_printf_i+0xbc>
 800430c:	681d      	ldr	r5, [r3, #0]
 800430e:	e003      	b.n	8004318 <_printf_i+0xc4>
 8004310:	0645      	lsls	r5, r0, #25
 8004312:	d5fb      	bpl.n	800430c <_printf_i+0xb8>
 8004314:	f9b3 5000 	ldrsh.w	r5, [r3]
 8004318:	2d00      	cmp	r5, #0
 800431a:	da03      	bge.n	8004324 <_printf_i+0xd0>
 800431c:	232d      	movs	r3, #45	@ 0x2d
 800431e:	426d      	negs	r5, r5
 8004320:	f884 3043 	strb.w	r3, [r4, #67]	@ 0x43
 8004324:	230a      	movs	r3, #10
 8004326:	4858      	ldr	r0, [pc, #352]	@ (8004488 <_printf_i+0x234>)
 8004328:	e011      	b.n	800434e <_printf_i+0xfa>
 800432a:	6821      	ldr	r1, [r4, #0]
 800432c:	6833      	ldr	r3, [r6, #0]
 800432e:	0608      	lsls	r0, r1, #24
 8004330:	f853 5b04 	ldr.w	r5, [r3], #4
 8004334:	d402      	bmi.n	800433c <_printf_i+0xe8>
 8004336:	0649      	lsls	r1, r1, #25
 8004338:	bf48      	it	mi
 800433a:	b2ad      	uxthmi	r5, r5
 800433c:	2f6f      	cmp	r7, #111	@ 0x6f
 800433e:	6033      	str	r3, [r6, #0]
 8004340:	bf14      	ite	ne
 8004342:	230a      	movne	r3, #10
 8004344:	2308      	moveq	r3, #8
 8004346:	4850      	ldr	r0, [pc, #320]	@ (8004488 <_printf_i+0x234>)
 8004348:	2100      	movs	r1, #0
 800434a:	f884 1043 	strb.w	r1, [r4, #67]	@ 0x43
 800434e:	6866      	ldr	r6, [r4, #4]
 8004350:	2e00      	cmp	r6, #0
 8004352:	60a6      	str	r6, [r4, #8]
 8004354:	db05      	blt.n	8004362 <_printf_i+0x10e>
 8004356:	6821      	ldr	r1, [r4, #0]
 8004358:	432e      	orrs	r6, r5
 800435a:	f021 0104 	bic.w	r1, r1, #4
 800435e:	6021      	str	r1, [r4, #0]
 8004360:	d04b      	beq.n	80043fa <_printf_i+0x1a6>
 8004362:	4616      	mov	r6, r2
 8004364:	fbb5 f1f3 	udiv	r1, r5, r3
 8004368:	fb03 5711 	mls	r7, r3, r1, r5
 800436c:	5dc7      	ldrb	r7, [r0, r7]
 800436e:	f806 7d01 	strb.w	r7, [r6, #-1]!
 8004372:	462f      	mov	r7, r5
 8004374:	42bb      	cmp	r3, r7
 8004376:	460d      	mov	r5, r1
 8004378:	d9f4      	bls.n	8004364 <_printf_i+0x110>
 800437a:	2b08      	cmp	r3, #8
 800437c:	d10b      	bne.n	8004396 <_printf_i+0x142>
 800437e:	6823      	ldr	r3, [r4, #0]
 8004380:	07df      	lsls	r7, r3, #31
 8004382:	d508      	bpl.n	8004396 <_printf_i+0x142>
 8004384:	6923      	ldr	r3, [r4, #16]
 8004386:	6861      	ldr	r1, [r4, #4]
 8004388:	4299      	cmp	r1, r3
 800438a:	bfde      	ittt	le
 800438c:	2330      	movle	r3, #48	@ 0x30
 800438e:	f806 3c01 	strble.w	r3, [r6, #-1]
 8004392:	f106 36ff 	addle.w	r6, r6, #4294967295
 8004396:	1b92      	subs	r2, r2, r6
 8004398:	6122      	str	r2, [r4, #16]
 800439a:	464b      	mov	r3, r9
 800439c:	4621      	mov	r1, r4
 800439e:	4640      	mov	r0, r8
 80043a0:	f8cd a000 	str.w	sl, [sp]
 80043a4:	aa03      	add	r2, sp, #12
 80043a6:	f7ff fee3 	bl	8004170 <_printf_common>
 80043aa:	3001      	adds	r0, #1
 80043ac:	d14a      	bne.n	8004444 <_printf_i+0x1f0>
 80043ae:	f04f 30ff 	mov.w	r0, #4294967295
 80043b2:	b004      	add	sp, #16
 80043b4:	e8bd 87f0 	ldmia.w	sp!, {r4, r5, r6, r7, r8, r9, sl, pc}
 80043b8:	6823      	ldr	r3, [r4, #0]
 80043ba:	f043 0320 	orr.w	r3, r3, #32
 80043be:	6023      	str	r3, [r4, #0]
 80043c0:	2778      	movs	r7, #120	@ 0x78
 80043c2:	4832      	ldr	r0, [pc, #200]	@ (800448c <_printf_i+0x238>)
 80043c4:	f884 7045 	strb.w	r7, [r4, #69]	@ 0x45
 80043c8:	6823      	ldr	r3, [r4, #0]
 80043ca:	6831      	ldr	r1, [r6, #0]
 80043cc:	061f      	lsls	r7, r3, #24
 80043ce:	f851 5b04 	ldr.w	r5, [r1], #4
 80043d2:	d402      	bmi.n	80043da <_printf_i+0x186>
 80043d4:	065f      	lsls	r7, r3, #25
 80043d6:	bf48      	it	mi
 80043d8:	b2ad      	uxthmi	r5, r5
 80043da:	6031      	str	r1, [r6, #0]
 80043dc:	07d9      	lsls	r1, r3, #31
 80043de:	bf44      	itt	mi
 80043e0:	f043 0320 	orrmi.w	r3, r3, #32
 80043e4:	6023      	strmi	r3, [r4, #0]
 80043e6:	b11d      	cbz	r5, 80043f0 <_printf_i+0x19c>
 80043e8:	2310      	movs	r3, #16
 80043ea:	e7ad      	b.n	8004348 <_printf_i+0xf4>
 80043ec:	4826      	ldr	r0, [pc, #152]	@ (8004488 <_printf_i+0x234>)
 80043ee:	e7e9      	b.n	80043c4 <_printf_i+0x170>
 80043f0:	6823      	ldr	r3, [r4, #0]
 80043f2:	f023 0320 	bic.w	r3, r3, #32
 80043f6:	6023      	str	r3, [r4, #0]
 80043f8:	e7f6      	b.n	80043e8 <_printf_i+0x194>
 80043fa:	4616      	mov	r6, r2
 80043fc:	e7bd      	b.n	800437a <_printf_i+0x126>
 80043fe:	6833      	ldr	r3, [r6, #0]
 8004400:	6825      	ldr	r5, [r4, #0]
 8004402:	1d18      	adds	r0, r3, #4
 8004404:	6961      	ldr	r1, [r4, #20]
 8004406:	6030      	str	r0, [r6, #0]
 8004408:	062e      	lsls	r6, r5, #24
 800440a:	681b      	ldr	r3, [r3, #0]
 800440c:	d501      	bpl.n	8004412 <_printf_i+0x1be>
 800440e:	6019      	str	r1, [r3, #0]
 8004410:	e002      	b.n	8004418 <_printf_i+0x1c4>
 8004412:	0668      	lsls	r0, r5, #25
 8004414:	d5fb      	bpl.n	800440e <_printf_i+0x1ba>
 8004416:	8019      	strh	r1, [r3, #0]
 8004418:	2300      	movs	r3, #0
 800441a:	4616      	mov	r6, r2
 800441c:	6123      	str	r3, [r4, #16]
 800441e:	e7bc      	b.n	800439a <_printf_i+0x146>
 8004420:	6833      	ldr	r3, [r6, #0]
 8004422:	2100      	movs	r1, #0
 8004424:	1d1a      	adds	r2, r3, #4
 8004426:	6032      	str	r2, [r6, #0]
 8004428:	681e      	ldr	r6, [r3, #0]
 800442a:	6862      	ldr	r2, [r4, #4]
 800442c:	4630      	mov	r0, r6
 800442e:	f000 f99f 	bl	8004770 <memchr>
 8004432:	b108      	cbz	r0, 8004438 <_printf_i+0x1e4>
 8004434:	1b80      	subs	r0, r0, r6
 8004436:	6060      	str	r0, [r4, #4]
 8004438:	6863      	ldr	r3, [r4, #4]
 800443a:	6123      	str	r3, [r4, #16]
 800443c:	2300      	movs	r3, #0
 800443e:	f884 3043 	strb.w	r3, [r4, #67]	@ 0x43
 8004442:	e7aa      	b.n	800439a <_printf_i+0x146>
 8004444:	4632      	mov	r2, r6
 8004446:	4649      	mov	r1, r9
 8004448:	4640      	mov	r0, r8
 800444a:	6923      	ldr	r3, [r4, #16]
 800444c:	47d0      	blx	sl
 800444e:	3001      	adds	r0, #1
 8004450:	d0ad      	beq.n	80043ae <_printf_i+0x15a>
 8004452:	6823      	ldr	r3, [r4, #0]
 8004454:	079b      	lsls	r3, r3, #30
 8004456:	d413      	bmi.n	8004480 <_printf_i+0x22c>
 8004458:	68e0      	ldr	r0, [r4, #12]
 800445a:	9b03      	ldr	r3, [sp, #12]
 800445c:	4298      	cmp	r0, r3
 800445e:	bfb8      	it	lt
 8004460:	4618      	movlt	r0, r3
 8004462:	e7a6      	b.n	80043b2 <_printf_i+0x15e>
 8004464:	2301      	movs	r3, #1
 8004466:	4632      	mov	r2, r6
 8004468:	4649      	mov	r1, r9
 800446a:	4640      	mov	r0, r8
 800446c:	47d0      	blx	sl
 800446e:	3001      	adds	r0, #1
 8004470:	d09d      	beq.n	80043ae <_printf_i+0x15a>
 8004472:	3501      	adds	r5, #1
 8004474:	68e3      	ldr	r3, [r4, #12]
 8004476:	9903      	ldr	r1, [sp, #12]
 8004478:	1a5b      	subs	r3, r3, r1
 800447a:	42ab      	cmp	r3, r5
 800447c:	dcf2      	bgt.n	8004464 <_printf_i+0x210>
 800447e:	e7eb      	b.n	8004458 <_printf_i+0x204>
 8004480:	2500      	movs	r5, #0
 8004482:	f104 0619 	add.w	r6, r4, #25
 8004486:	e7f5      	b.n	8004474 <_printf_i+0x220>
 8004488:	0800486d 	.word	0x0800486d
 800448c:	0800487e 	.word	0x0800487e

08004490 <__sflush_r>:
 8004490:	f9b1 200c 	ldrsh.w	r2, [r1, #12]
 8004494:	b5f8      	push	{r3, r4, r5, r6, r7, lr}
 8004496:	0716      	lsls	r6, r2, #28
 8004498:	4605      	mov	r5, r0
 800449a:	460c      	mov	r4, r1
 800449c:	d454      	bmi.n	8004548 <__sflush_r+0xb8>
 800449e:	684b      	ldr	r3, [r1, #4]
 80044a0:	2b00      	cmp	r3, #0
 80044a2:	dc02      	bgt.n	80044aa <__sflush_r+0x1a>
 80044a4:	6c0b      	ldr	r3, [r1, #64]	@ 0x40
 80044a6:	2b00      	cmp	r3, #0
 80044a8:	dd48      	ble.n	800453c <__sflush_r+0xac>
 80044aa:	6ae6      	ldr	r6, [r4, #44]	@ 0x2c
 80044ac:	2e00      	cmp	r6, #0
 80044ae:	d045      	beq.n	800453c <__sflush_r+0xac>
 80044b0:	2300      	movs	r3, #0
 80044b2:	f412 5280 	ands.w	r2, r2, #4096	@ 0x1000
 80044b6:	682f      	ldr	r7, [r5, #0]
 80044b8:	6a21      	ldr	r1, [r4, #32]
 80044ba:	602b      	str	r3, [r5, #0]
 80044bc:	d030      	beq.n	8004520 <__sflush_r+0x90>
 80044be:	6d62      	ldr	r2, [r4, #84]	@ 0x54
 80044c0:	89a3      	ldrh	r3, [r4, #12]
 80044c2:	0759      	lsls	r1, r3, #29
 80044c4:	d505      	bpl.n	80044d2 <__sflush_r+0x42>
 80044c6:	6863      	ldr	r3, [r4, #4]
 80044c8:	1ad2      	subs	r2, r2, r3
 80044ca:	6b63      	ldr	r3, [r4, #52]	@ 0x34
 80044cc:	b10b      	cbz	r3, 80044d2 <__sflush_r+0x42>
 80044ce:	6c23      	ldr	r3, [r4, #64]	@ 0x40
 80044d0:	1ad2      	subs	r2, r2, r3
 80044d2:	2300      	movs	r3, #0
 80044d4:	4628      	mov	r0, r5
 80044d6:	6ae6      	ldr	r6, [r4, #44]	@ 0x2c
 80044d8:	6a21      	ldr	r1, [r4, #32]
 80044da:	47b0      	blx	r6
 80044dc:	1c43      	adds	r3, r0, #1
 80044de:	89a3      	ldrh	r3, [r4, #12]
 80044e0:	d106      	bne.n	80044f0 <__sflush_r+0x60>
 80044e2:	6829      	ldr	r1, [r5, #0]
 80044e4:	291d      	cmp	r1, #29
 80044e6:	d82b      	bhi.n	8004540 <__sflush_r+0xb0>
 80044e8:	4a28      	ldr	r2, [pc, #160]	@ (800458c <__sflush_r+0xfc>)
 80044ea:	40ca      	lsrs	r2, r1
 80044ec:	07d6      	lsls	r6, r2, #31
 80044ee:	d527      	bpl.n	8004540 <__sflush_r+0xb0>
 80044f0:	2200      	movs	r2, #0
 80044f2:	6062      	str	r2, [r4, #4]
 80044f4:	6922      	ldr	r2, [r4, #16]
 80044f6:	04d9      	lsls	r1, r3, #19
 80044f8:	6022      	str	r2, [r4, #0]
 80044fa:	d504      	bpl.n	8004506 <__sflush_r+0x76>
 80044fc:	1c42      	adds	r2, r0, #1
 80044fe:	d101      	bne.n	8004504 <__sflush_r+0x74>
 8004500:	682b      	ldr	r3, [r5, #0]
 8004502:	b903      	cbnz	r3, 8004506 <__sflush_r+0x76>
 8004504:	6560      	str	r0, [r4, #84]	@ 0x54
 8004506:	6b61      	ldr	r1, [r4, #52]	@ 0x34
 8004508:	602f      	str	r7, [r5, #0]
 800450a:	b1b9      	cbz	r1, 800453c <__sflush_r+0xac>
 800450c:	f104 0344 	add.w	r3, r4, #68	@ 0x44
 8004510:	4299      	cmp	r1, r3
 8004512:	d002      	beq.n	800451a <__sflush_r+0x8a>
 8004514:	4628      	mov	r0, r5
 8004516:	f7ff fbf5 	bl	8003d04 <_free_r>
 800451a:	2300      	movs	r3, #0
 800451c:	6363      	str	r3, [r4, #52]	@ 0x34
 800451e:	e00d      	b.n	800453c <__sflush_r+0xac>
 8004520:	2301      	movs	r3, #1
 8004522:	4628      	mov	r0, r5
 8004524:	47b0      	blx	r6
 8004526:	4602      	mov	r2, r0
 8004528:	1c50      	adds	r0, r2, #1
 800452a:	d1c9      	bne.n	80044c0 <__sflush_r+0x30>
 800452c:	682b      	ldr	r3, [r5, #0]
 800452e:	2b00      	cmp	r3, #0
 8004530:	d0c6      	beq.n	80044c0 <__sflush_r+0x30>
 8004532:	2b1d      	cmp	r3, #29
 8004534:	d001      	beq.n	800453a <__sflush_r+0xaa>
 8004536:	2b16      	cmp	r3, #22
 8004538:	d11d      	bne.n	8004576 <__sflush_r+0xe6>
 800453a:	602f      	str	r7, [r5, #0]
 800453c:	2000      	movs	r0, #0
 800453e:	e021      	b.n	8004584 <__sflush_r+0xf4>
 8004540:	f043 0340 	orr.w	r3, r3, #64	@ 0x40
 8004544:	b21b      	sxth	r3, r3
 8004546:	e01a      	b.n	800457e <__sflush_r+0xee>
 8004548:	690f      	ldr	r7, [r1, #16]
 800454a:	2f00      	cmp	r7, #0
 800454c:	d0f6      	beq.n	800453c <__sflush_r+0xac>
 800454e:	0793      	lsls	r3, r2, #30
 8004550:	bf18      	it	ne
 8004552:	2300      	movne	r3, #0
 8004554:	680e      	ldr	r6, [r1, #0]
 8004556:	bf08      	it	eq
 8004558:	694b      	ldreq	r3, [r1, #20]
 800455a:	1bf6      	subs	r6, r6, r7
 800455c:	600f      	str	r7, [r1, #0]
 800455e:	608b      	str	r3, [r1, #8]
 8004560:	2e00      	cmp	r6, #0
 8004562:	ddeb      	ble.n	800453c <__sflush_r+0xac>
 8004564:	4633      	mov	r3, r6
 8004566:	463a      	mov	r2, r7
 8004568:	4628      	mov	r0, r5
 800456a:	6a21      	ldr	r1, [r4, #32]
 800456c:	f8d4 c028 	ldr.w	ip, [r4, #40]	@ 0x28
 8004570:	47e0      	blx	ip
 8004572:	2800      	cmp	r0, #0
 8004574:	dc07      	bgt.n	8004586 <__sflush_r+0xf6>
 8004576:	f9b4 300c 	ldrsh.w	r3, [r4, #12]
 800457a:	f043 0340 	orr.w	r3, r3, #64	@ 0x40
 800457e:	f04f 30ff 	mov.w	r0, #4294967295
 8004582:	81a3      	strh	r3, [r4, #12]
 8004584:	bdf8      	pop	{r3, r4, r5, r6, r7, pc}
 8004586:	4407      	add	r7, r0
 8004588:	1a36      	subs	r6, r6, r0
 800458a:	e7e9      	b.n	8004560 <__sflush_r+0xd0>
 800458c:	20400001 	.word	0x20400001

08004590 <_fflush_r>:
 8004590:	b538      	push	{r3, r4, r5, lr}
 8004592:	690b      	ldr	r3, [r1, #16]
 8004594:	4605      	mov	r5, r0
 8004596:	460c      	mov	r4, r1
 8004598:	b913      	cbnz	r3, 80045a0 <_fflush_r+0x10>
 800459a:	2500      	movs	r5, #0
 800459c:	4628      	mov	r0, r5
 800459e:	bd38      	pop	{r3, r4, r5, pc}
 80045a0:	b118      	cbz	r0, 80045aa <_fflush_r+0x1a>
 80045a2:	6a03      	ldr	r3, [r0, #32]
 80045a4:	b90b      	cbnz	r3, 80045aa <_fflush_r+0x1a>
 80045a6:	f7ff f94d 	bl	8003844 <__sinit>
 80045aa:	f9b4 300c 	ldrsh.w	r3, [r4, #12]
 80045ae:	2b00      	cmp	r3, #0
 80045b0:	d0f3      	beq.n	800459a <_fflush_r+0xa>
 80045b2:	6e62      	ldr	r2, [r4, #100]	@ 0x64
 80045b4:	07d0      	lsls	r0, r2, #31
 80045b6:	d404      	bmi.n	80045c2 <_fflush_r+0x32>
 80045b8:	0599      	lsls	r1, r3, #22
 80045ba:	d402      	bmi.n	80045c2 <_fflush_r+0x32>
 80045bc:	6da0      	ldr	r0, [r4, #88]	@ 0x58
 80045be:	f7ff fb9e 	bl	8003cfe <__retarget_lock_acquire_recursive>
 80045c2:	4628      	mov	r0, r5
 80045c4:	4621      	mov	r1, r4
 80045c6:	f7ff ff63 	bl	8004490 <__sflush_r>
 80045ca:	6e63      	ldr	r3, [r4, #100]	@ 0x64
 80045cc:	4605      	mov	r5, r0
 80045ce:	07da      	lsls	r2, r3, #31
 80045d0:	d4e4      	bmi.n	800459c <_fflush_r+0xc>
 80045d2:	89a3      	ldrh	r3, [r4, #12]
 80045d4:	059b      	lsls	r3, r3, #22
 80045d6:	d4e1      	bmi.n	800459c <_fflush_r+0xc>
 80045d8:	6da0      	ldr	r0, [r4, #88]	@ 0x58
 80045da:	f7ff fb91 	bl	8003d00 <__retarget_lock_release_recursive>
 80045de:	e7dd      	b.n	800459c <_fflush_r+0xc>

080045e0 <__swhatbuf_r>:
 80045e0:	b570      	push	{r4, r5, r6, lr}
 80045e2:	460c      	mov	r4, r1
 80045e4:	f9b1 100e 	ldrsh.w	r1, [r1, #14]
 80045e8:	4615      	mov	r5, r2
 80045ea:	2900      	cmp	r1, #0
 80045ec:	461e      	mov	r6, r3
 80045ee:	b096      	sub	sp, #88	@ 0x58
 80045f0:	da0c      	bge.n	800460c <__swhatbuf_r+0x2c>
 80045f2:	89a3      	ldrh	r3, [r4, #12]
 80045f4:	2100      	movs	r1, #0
 80045f6:	f013 0f80 	tst.w	r3, #128	@ 0x80
 80045fa:	bf14      	ite	ne
 80045fc:	2340      	movne	r3, #64	@ 0x40
 80045fe:	f44f 6380 	moveq.w	r3, #1024	@ 0x400
 8004602:	2000      	movs	r0, #0
 8004604:	6031      	str	r1, [r6, #0]
 8004606:	602b      	str	r3, [r5, #0]
 8004608:	b016      	add	sp, #88	@ 0x58
 800460a:	bd70      	pop	{r4, r5, r6, pc}
 800460c:	466a      	mov	r2, sp
 800460e:	f000 f87d 	bl	800470c <_fstat_r>
 8004612:	2800      	cmp	r0, #0
 8004614:	dbed      	blt.n	80045f2 <__swhatbuf_r+0x12>
 8004616:	9901      	ldr	r1, [sp, #4]
 8004618:	f401 4170 	and.w	r1, r1, #61440	@ 0xf000
 800461c:	f5a1 5300 	sub.w	r3, r1, #8192	@ 0x2000
 8004620:	4259      	negs	r1, r3
 8004622:	4159      	adcs	r1, r3
 8004624:	f44f 6380 	mov.w	r3, #1024	@ 0x400
 8004628:	e7eb      	b.n	8004602 <__swhatbuf_r+0x22>

0800462a <__smakebuf_r>:
 800462a:	898b      	ldrh	r3, [r1, #12]
 800462c:	b5f7      	push	{r0, r1, r2, r4, r5, r6, r7, lr}
 800462e:	079d      	lsls	r5, r3, #30
 8004630:	4606      	mov	r6, r0
 8004632:	460c      	mov	r4, r1
 8004634:	d507      	bpl.n	8004646 <__smakebuf_r+0x1c>
 8004636:	f104 0347 	add.w	r3, r4, #71	@ 0x47
 800463a:	6023      	str	r3, [r4, #0]
 800463c:	6123      	str	r3, [r4, #16]
 800463e:	2301      	movs	r3, #1
 8004640:	6163      	str	r3, [r4, #20]
 8004642:	b003      	add	sp, #12
 8004644:	bdf0      	pop	{r4, r5, r6, r7, pc}
 8004646:	466a      	mov	r2, sp
 8004648:	ab01      	add	r3, sp, #4
 800464a:	f7ff ffc9 	bl	80045e0 <__swhatbuf_r>
 800464e:	9f00      	ldr	r7, [sp, #0]
 8004650:	4605      	mov	r5, r0
 8004652:	4639      	mov	r1, r7
 8004654:	4630      	mov	r0, r6
 8004656:	f7ff fbbf 	bl	8003dd8 <_malloc_r>
 800465a:	b948      	cbnz	r0, 8004670 <__smakebuf_r+0x46>
 800465c:	f9b4 300c 	ldrsh.w	r3, [r4, #12]
 8004660:	059a      	lsls	r2, r3, #22
 8004662:	d4ee      	bmi.n	8004642 <__smakebuf_r+0x18>
 8004664:	f023 0303 	bic.w	r3, r3, #3
 8004668:	f043 0302 	orr.w	r3, r3, #2
 800466c:	81a3      	strh	r3, [r4, #12]
 800466e:	e7e2      	b.n	8004636 <__smakebuf_r+0xc>
 8004670:	89a3      	ldrh	r3, [r4, #12]
 8004672:	e9c4 0704 	strd	r0, r7, [r4, #16]
 8004676:	f043 0380 	orr.w	r3, r3, #128	@ 0x80
 800467a:	81a3      	strh	r3, [r4, #12]
 800467c:	9b01      	ldr	r3, [sp, #4]
 800467e:	6020      	str	r0, [r4, #0]
 8004680:	b15b      	cbz	r3, 800469a <__smakebuf_r+0x70>
 8004682:	4630      	mov	r0, r6
 8004684:	f9b4 100e 	ldrsh.w	r1, [r4, #14]
 8004688:	f000 f852 	bl	8004730 <_isatty_r>
 800468c:	b128      	cbz	r0, 800469a <__smakebuf_r+0x70>
 800468e:	89a3      	ldrh	r3, [r4, #12]
 8004690:	f023 0303 	bic.w	r3, r3, #3
 8004694:	f043 0301 	orr.w	r3, r3, #1
 8004698:	81a3      	strh	r3, [r4, #12]
 800469a:	89a3      	ldrh	r3, [r4, #12]
 800469c:	431d      	orrs	r5, r3
 800469e:	81a5      	strh	r5, [r4, #12]
 80046a0:	e7cf      	b.n	8004642 <__smakebuf_r+0x18>

080046a2 <_putc_r>:
 80046a2:	b570      	push	{r4, r5, r6, lr}
 80046a4:	460d      	mov	r5, r1
 80046a6:	4614      	mov	r4, r2
 80046a8:	4606      	mov	r6, r0
 80046aa:	b118      	cbz	r0, 80046b4 <_putc_r+0x12>
 80046ac:	6a03      	ldr	r3, [r0, #32]
 80046ae:	b90b      	cbnz	r3, 80046b4 <_putc_r+0x12>
 80046b0:	f7ff f8c8 	bl	8003844 <__sinit>
 80046b4:	6e63      	ldr	r3, [r4, #100]	@ 0x64
 80046b6:	07d8      	lsls	r0, r3, #31
 80046b8:	d405      	bmi.n	80046c6 <_putc_r+0x24>
 80046ba:	89a3      	ldrh	r3, [r4, #12]
 80046bc:	0599      	lsls	r1, r3, #22
 80046be:	d402      	bmi.n	80046c6 <_putc_r+0x24>
 80046c0:	6da0      	ldr	r0, [r4, #88]	@ 0x58
 80046c2:	f7ff fb1c 	bl	8003cfe <__retarget_lock_acquire_recursive>
 80046c6:	68a3      	ldr	r3, [r4, #8]
 80046c8:	3b01      	subs	r3, #1
 80046ca:	2b00      	cmp	r3, #0
 80046cc:	60a3      	str	r3, [r4, #8]
 80046ce:	da05      	bge.n	80046dc <_putc_r+0x3a>
 80046d0:	69a2      	ldr	r2, [r4, #24]
 80046d2:	4293      	cmp	r3, r2
 80046d4:	db12      	blt.n	80046fc <_putc_r+0x5a>
 80046d6:	b2eb      	uxtb	r3, r5
 80046d8:	2b0a      	cmp	r3, #10
 80046da:	d00f      	beq.n	80046fc <_putc_r+0x5a>
 80046dc:	6823      	ldr	r3, [r4, #0]
 80046de:	1c5a      	adds	r2, r3, #1
 80046e0:	6022      	str	r2, [r4, #0]
 80046e2:	701d      	strb	r5, [r3, #0]
 80046e4:	b2ed      	uxtb	r5, r5
 80046e6:	6e63      	ldr	r3, [r4, #100]	@ 0x64
 80046e8:	07da      	lsls	r2, r3, #31
 80046ea:	d405      	bmi.n	80046f8 <_putc_r+0x56>
 80046ec:	89a3      	ldrh	r3, [r4, #12]
 80046ee:	059b      	lsls	r3, r3, #22
 80046f0:	d402      	bmi.n	80046f8 <_putc_r+0x56>
 80046f2:	6da0      	ldr	r0, [r4, #88]	@ 0x58
 80046f4:	f7ff fb04 	bl	8003d00 <__retarget_lock_release_recursive>
 80046f8:	4628      	mov	r0, r5
 80046fa:	bd70      	pop	{r4, r5, r6, pc}
 80046fc:	4629      	mov	r1, r5
 80046fe:	4622      	mov	r2, r4
 8004700:	4630      	mov	r0, r6
 8004702:	f7ff f990 	bl	8003a26 <__swbuf_r>
 8004706:	4605      	mov	r5, r0
 8004708:	e7ed      	b.n	80046e6 <_putc_r+0x44>
	...

0800470c <_fstat_r>:
 800470c:	b538      	push	{r3, r4, r5, lr}
 800470e:	2300      	movs	r3, #0
 8004710:	4d06      	ldr	r5, [pc, #24]	@ (800472c <_fstat_r+0x20>)
 8004712:	4604      	mov	r4, r0
 8004714:	4608      	mov	r0, r1
 8004716:	4611      	mov	r1, r2
 8004718:	602b      	str	r3, [r5, #0]
 800471a:	f7fc f82e 	bl	800077a <_fstat>
 800471e:	1c43      	adds	r3, r0, #1
 8004720:	d102      	bne.n	8004728 <_fstat_r+0x1c>
 8004722:	682b      	ldr	r3, [r5, #0]
 8004724:	b103      	cbz	r3, 8004728 <_fstat_r+0x1c>
 8004726:	6023      	str	r3, [r4, #0]
 8004728:	bd38      	pop	{r3, r4, r5, pc}
 800472a:	bf00      	nop
 800472c:	20001348 	.word	0x20001348

08004730 <_isatty_r>:
 8004730:	b538      	push	{r3, r4, r5, lr}
 8004732:	2300      	movs	r3, #0
 8004734:	4d05      	ldr	r5, [pc, #20]	@ (800474c <_isatty_r+0x1c>)
 8004736:	4604      	mov	r4, r0
 8004738:	4608      	mov	r0, r1
 800473a:	602b      	str	r3, [r5, #0]
 800473c:	f7fc f822 	bl	8000784 <_isatty>
 8004740:	1c43      	adds	r3, r0, #1
 8004742:	d102      	bne.n	800474a <_isatty_r+0x1a>
 8004744:	682b      	ldr	r3, [r5, #0]
 8004746:	b103      	cbz	r3, 800474a <_isatty_r+0x1a>
 8004748:	6023      	str	r3, [r4, #0]
 800474a:	bd38      	pop	{r3, r4, r5, pc}
 800474c:	20001348 	.word	0x20001348

08004750 <_sbrk_r>:
 8004750:	b538      	push	{r3, r4, r5, lr}
 8004752:	2300      	movs	r3, #0
 8004754:	4d05      	ldr	r5, [pc, #20]	@ (800476c <_sbrk_r+0x1c>)
 8004756:	4604      	mov	r4, r0
 8004758:	4608      	mov	r0, r1
 800475a:	602b      	str	r3, [r5, #0]
 800475c:	f7fc f816 	bl	800078c <_sbrk>
 8004760:	1c43      	adds	r3, r0, #1
 8004762:	d102      	bne.n	800476a <_sbrk_r+0x1a>
 8004764:	682b      	ldr	r3, [r5, #0]
 8004766:	b103      	cbz	r3, 800476a <_sbrk_r+0x1a>
 8004768:	6023      	str	r3, [r4, #0]
 800476a:	bd38      	pop	{r3, r4, r5, pc}
 800476c:	20001348 	.word	0x20001348

08004770 <memchr>:
 8004770:	4603      	mov	r3, r0
 8004772:	b510      	push	{r4, lr}
 8004774:	b2c9      	uxtb	r1, r1
 8004776:	4402      	add	r2, r0
 8004778:	4293      	cmp	r3, r2
 800477a:	4618      	mov	r0, r3
 800477c:	d101      	bne.n	8004782 <memchr+0x12>
 800477e:	2000      	movs	r0, #0
 8004780:	e003      	b.n	800478a <memchr+0x1a>
 8004782:	7804      	ldrb	r4, [r0, #0]
 8004784:	3301      	adds	r3, #1
 8004786:	428c      	cmp	r4, r1
 8004788:	d1f6      	bne.n	8004778 <memchr+0x8>
 800478a:	bd10      	pop	{r4, pc}

0800478c <_init>:
 800478c:	b5f8      	push	{r3, r4, r5, r6, r7, lr}
 800478e:	bf00      	nop
 8004790:	bcf8      	pop	{r3, r4, r5, r6, r7}
 8004792:	bc08      	pop	{r3}
 8004794:	469e      	mov	lr, r3
 8004796:	4770      	bx	lr

08004798 <_fini>:
 8004798:	b5f8      	push	{r3, r4, r5, r6, r7, lr}
 800479a:	bf00      	nop
 800479c:	bcf8      	pop	{r3, r4, r5, r6, r7}
 800479e:	bc08      	pop	{r3}
 80047a0:	469e      	mov	lr, r3
 80047a2:	4770      	bx	lr
